ARM GAS  C:\Users\Areg\AppData\Local\Temp\ccSLOuIS.s 			page 1


   1              		.syntax unified
   2              		.cpu cortex-m3
   3              		.fpu softvfp
   4              		.eabi_attribute 20, 1
   5              		.eabi_attribute 21, 1
   6              		.eabi_attribute 23, 3
   7              		.eabi_attribute 24, 1
   8              		.eabi_attribute 25, 1
   9              		.eabi_attribute 26, 1
  10              		.eabi_attribute 30, 1
  11              		.eabi_attribute 34, 1
  12              		.eabi_attribute 18, 4
  13              		.thumb
  14              		.syntax unified
  15              		.file	"comms.c"
  16              		.text
  17              	.Ltext0:
  18              		.cfi_sections	.debug_frame
  19              		.section	.text.setScopeChannel,"ax",%progbits
  20              		.align	2
  21              		.global	setScopeChannel
  22              		.thumb
  23              		.thumb_func
  25              	setScopeChannel:
  26              	.LFB64:
  27              		.file 1 "Src/comms.c"
   1:Src/comms.c   **** #include "stm32f1xx_hal.h"
   2:Src/comms.c   **** #include "defines.h"
   3:Src/comms.c   **** #include "setup.h"
   4:Src/comms.c   **** #include "config.h"
   5:Src/comms.c   **** #include "stdio.h"
   6:Src/comms.c   **** #include "string.h"
   7:Src/comms.c   **** 
   8:Src/comms.c   **** UART_HandleTypeDef huart2;
   9:Src/comms.c   **** 
  10:Src/comms.c   **** #ifdef DEBUG_SERIAL_USART3
  11:Src/comms.c   **** #define UART_DMA_CHANNEL DMA1_Channel2
  12:Src/comms.c   **** #endif
  13:Src/comms.c   **** 
  14:Src/comms.c   **** #ifdef DEBUG_SERIAL_USART2
  15:Src/comms.c   **** #define UART_DMA_CHANNEL DMA1_Channel7
  16:Src/comms.c   **** #endif
  17:Src/comms.c   **** 
  18:Src/comms.c   **** 
  19:Src/comms.c   **** volatile uint8_t uart_buf[100];
  20:Src/comms.c   **** volatile int16_t ch_buf[8];
  21:Src/comms.c   **** //volatile char char_buf[300];
  22:Src/comms.c   **** 
  23:Src/comms.c   **** void setScopeChannel(uint8_t ch, int16_t val) {
  28              		.loc 1 23 0
  29              		.cfi_startproc
  30              		@ args = 0, pretend = 0, frame = 0
  31              		@ frame_needed = 0, uses_anonymous_args = 0
  32              		@ link register save eliminated.
  33              	.LVL0:
  24:Src/comms.c   ****   ch_buf[ch] = val;
  34              		.loc 1 24 0
ARM GAS  C:\Users\Areg\AppData\Local\Temp\ccSLOuIS.s 			page 2


  35 0000 014B     		ldr	r3, .L2
  36 0002 23F81010 		strh	r1, [r3, r0, lsl #1]	@ movhi
  37 0006 7047     		bx	lr
  38              	.L3:
  39              		.align	2
  40              	.L2:
  41 0008 00000000 		.word	ch_buf
  42              		.cfi_endproc
  43              	.LFE64:
  45              		.section	.text.consoleScope,"ax",%progbits
  46              		.align	2
  47              		.global	consoleScope
  48              		.thumb
  49              		.thumb_func
  51              	consoleScope:
  52              	.LFB65:
  25:Src/comms.c   **** }
  26:Src/comms.c   **** 
  27:Src/comms.c   **** void consoleScope() {
  53              		.loc 1 27 0
  54              		.cfi_startproc
  55              		@ args = 0, pretend = 0, frame = 0
  56              		@ frame_needed = 0, uses_anonymous_args = 0
  57 0000 F0B5     		push	{r4, r5, r6, r7, lr}
  58              	.LCFI0:
  59              		.cfi_def_cfa_offset 20
  60              		.cfi_offset 4, -20
  61              		.cfi_offset 5, -16
  62              		.cfi_offset 6, -12
  63              		.cfi_offset 7, -8
  64              		.cfi_offset 14, -4
  65 0002 87B0     		sub	sp, sp, #28
  66              	.LCFI1:
  67              		.cfi_def_cfa_offset 48
  28:Src/comms.c   ****   #if defined DEBUG_SERIAL_SERVOTERM && (defined DEBUG_SERIAL_USART2 || defined DEBUG_SERIAL_USART3
  29:Src/comms.c   ****     uart_buf[0] = 0xff;
  30:Src/comms.c   ****     uart_buf[1] = CLAMP(ch_buf[0]+127, 0, 255);
  31:Src/comms.c   ****     uart_buf[2] = CLAMP(ch_buf[1]+127, 0, 255);
  32:Src/comms.c   ****     uart_buf[3] = CLAMP(ch_buf[2]+127, 0, 255);
  33:Src/comms.c   ****     uart_buf[4] = CLAMP(ch_buf[3]+127, 0, 255);
  34:Src/comms.c   ****     uart_buf[5] = CLAMP(ch_buf[4]+127, 0, 255);
  35:Src/comms.c   ****     uart_buf[6] = CLAMP(ch_buf[5]+127, 0, 255);
  36:Src/comms.c   ****     uart_buf[7] = CLAMP(ch_buf[6]+127, 0, 255);
  37:Src/comms.c   ****     uart_buf[8] = CLAMP(ch_buf[7]+127, 0, 255);
  38:Src/comms.c   ****     uart_buf[9] = '\n';
  39:Src/comms.c   **** 
  40:Src/comms.c   ****     if(UART_DMA_CHANNEL->CNDTR == 0) {
  41:Src/comms.c   ****       UART_DMA_CHANNEL->CCR &= ~DMA_CCR_EN;
  42:Src/comms.c   ****       UART_DMA_CHANNEL->CNDTR = 10;
  43:Src/comms.c   ****       UART_DMA_CHANNEL->CMAR  = (uint32_t)uart_buf;
  44:Src/comms.c   ****       UART_DMA_CHANNEL->CCR |= DMA_CCR_EN;
  45:Src/comms.c   ****     }
  46:Src/comms.c   ****   #endif
  47:Src/comms.c   **** 
  48:Src/comms.c   ****   #if defined DEBUG_SERIAL_ASCII && (defined DEBUG_SERIAL_USART2 || defined DEBUG_SERIAL_USART3)
  49:Src/comms.c   ****     memset(uart_buf, 0, sizeof(uart_buf));
  68              		.loc 1 49 0
ARM GAS  C:\Users\Areg\AppData\Local\Temp\ccSLOuIS.s 			page 3


  69 0004 1A4F     		ldr	r7, .L7
  70 0006 6422     		movs	r2, #100
  71 0008 0021     		movs	r1, #0
  72 000a 3846     		mov	r0, r7
  73 000c FFF7FEFF 		bl	memset
  74              	.LVL1:
  50:Src/comms.c   ****     sprintf(uart_buf, "1:%i 2:%i 3:%i 4:%i 5:%i 6:%i 7:%i 8:%i\r\n", ch_buf[0], ch_buf[1], ch_buf[2
  75              		.loc 1 50 0
  76 0010 1849     		ldr	r1, .L7+4
  77 0012 0A88     		ldrh	r2, [r1]
  78 0014 B1F802E0 		ldrh	lr, [r1, #2]
  79 0018 8888     		ldrh	r0, [r1, #4]
  80 001a 00B2     		sxth	r0, r0
  81 001c CC88     		ldrh	r4, [r1, #6]
  82 001e 24B2     		sxth	r4, r4
  83 0020 0D89     		ldrh	r5, [r1, #8]
  84 0022 2DB2     		sxth	r5, r5
  85 0024 4E89     		ldrh	r6, [r1, #10]
  86 0026 36B2     		sxth	r6, r6
  87 0028 8B89     		ldrh	r3, [r1, #12]
  88 002a 1BB2     		sxth	r3, r3
  89 002c C989     		ldrh	r1, [r1, #14]
  90 002e 09B2     		sxth	r1, r1
  91 0030 0591     		str	r1, [sp, #20]
  92 0032 0493     		str	r3, [sp, #16]
  93 0034 0396     		str	r6, [sp, #12]
  94 0036 0295     		str	r5, [sp, #8]
  95 0038 0194     		str	r4, [sp, #4]
  96 003a 0090     		str	r0, [sp]
  97 003c 0FFA8EF3 		sxth	r3, lr
  98 0040 12B2     		sxth	r2, r2
  99 0042 0D49     		ldr	r1, .L7+8
 100 0044 3846     		mov	r0, r7
 101 0046 FFF7FEFF 		bl	sprintf
 102              	.LVL2:
  51:Src/comms.c   **** 
  52:Src/comms.c   ****     if(UART_DMA_CHANNEL->CNDTR == 0) {
 103              		.loc 1 52 0
 104 004a 0C4B     		ldr	r3, .L7+12
 105 004c 5B68     		ldr	r3, [r3, #4]
 106 004e 6BB9     		cbnz	r3, .L4
  53:Src/comms.c   ****       UART_DMA_CHANNEL->CCR &= ~DMA_CCR_EN;
 107              		.loc 1 53 0
 108 0050 0A4C     		ldr	r4, .L7+12
 109 0052 2368     		ldr	r3, [r4]
 110 0054 23F00103 		bic	r3, r3, #1
 111 0058 2360     		str	r3, [r4]
  54:Src/comms.c   ****       UART_DMA_CHANNEL->CNDTR = strlen(uart_buf);
 112              		.loc 1 54 0
 113 005a 3846     		mov	r0, r7
 114 005c FFF7FEFF 		bl	strlen
 115              	.LVL3:
 116 0060 6060     		str	r0, [r4, #4]
  55:Src/comms.c   ****       UART_DMA_CHANNEL->CMAR  = (uint32_t)uart_buf;
 117              		.loc 1 55 0
 118 0062 E760     		str	r7, [r4, #12]
  56:Src/comms.c   ****       UART_DMA_CHANNEL->CCR |= DMA_CCR_EN;
ARM GAS  C:\Users\Areg\AppData\Local\Temp\ccSLOuIS.s 			page 4


 119              		.loc 1 56 0
 120 0064 2368     		ldr	r3, [r4]
 121 0066 43F00103 		orr	r3, r3, #1
 122 006a 2360     		str	r3, [r4]
 123              	.L4:
  57:Src/comms.c   ****     }
  58:Src/comms.c   ****   #endif
  59:Src/comms.c   **** }
 124              		.loc 1 59 0
 125 006c 07B0     		add	sp, sp, #28
 126              	.LCFI2:
 127              		.cfi_def_cfa_offset 20
 128              		@ sp needed
 129 006e F0BD     		pop	{r4, r5, r6, r7, pc}
 130              	.L8:
 131              		.align	2
 132              	.L7:
 133 0070 00000000 		.word	uart_buf
 134 0074 00000000 		.word	ch_buf
 135 0078 00000000 		.word	.LC0
 136 007c 1C000240 		.word	1073872924
 137              		.cfi_endproc
 138              	.LFE65:
 140              		.section	.text.consoleLog,"ax",%progbits
 141              		.align	2
 142              		.global	consoleLog
 143              		.thumb
 144              		.thumb_func
 146              	consoleLog:
 147              	.LFB66:
  60:Src/comms.c   **** 
  61:Src/comms.c   **** void consoleLog(char *message)
  62:Src/comms.c   **** {
 148              		.loc 1 62 0
 149              		.cfi_startproc
 150              		@ args = 0, pretend = 0, frame = 0
 151              		@ frame_needed = 0, uses_anonymous_args = 0
 152              	.LVL4:
 153 0000 10B5     		push	{r4, lr}
 154              	.LCFI3:
 155              		.cfi_def_cfa_offset 8
 156              		.cfi_offset 4, -8
 157              		.cfi_offset 14, -4
 158 0002 0446     		mov	r4, r0
  63:Src/comms.c   ****     HAL_UART_Transmit_DMA(&huart2, (uint8_t *)message, strlen(message));
 159              		.loc 1 63 0
 160 0004 FFF7FEFF 		bl	strlen
 161              	.LVL5:
 162 0008 82B2     		uxth	r2, r0
 163 000a 2146     		mov	r1, r4
 164 000c 0148     		ldr	r0, .L11
 165 000e FFF7FEFF 		bl	HAL_UART_Transmit_DMA
 166              	.LVL6:
 167 0012 10BD     		pop	{r4, pc}
 168              	.LVL7:
 169              	.L12:
 170              		.align	2
ARM GAS  C:\Users\Areg\AppData\Local\Temp\ccSLOuIS.s 			page 5


 171              	.L11:
 172 0014 00000000 		.word	huart2
 173              		.cfi_endproc
 174              	.LFE66:
 176              		.comm	ch_buf,16,4
 177              		.comm	uart_buf,100,4
 178              		.comm	huart2,64,4
 179              		.section	.rodata.str1.4,"aMS",%progbits,1
 180              		.align	2
 181              	.LC0:
 182 0000 313A2569 		.ascii	"1:%i 2:%i 3:%i 4:%i 5:%i 6:%i 7:%i 8:%i\015\012\000"
 182      20323A25 
 182      6920333A 
 182      25692034 
 182      3A256920 
 183              		.text
 184              	.Letext0:
 185              		.file 2 "d:\\stm32\\gcc-arm\\arm-none-eabi\\include\\machine\\_default_types.h"
 186              		.file 3 "d:\\stm32\\gcc-arm\\arm-none-eabi\\include\\sys\\_stdint.h"
 187              		.file 4 "Drivers/CMSIS/Device/ST/STM32F1xx/Include/stm32f103xe.h"
 188              		.file 5 "Drivers/STM32F1xx_HAL_Driver/Inc/stm32f1xx_hal_def.h"
 189              		.file 6 "Drivers/STM32F1xx_HAL_Driver/Inc/stm32f1xx_hal_dma.h"
 190              		.file 7 "Drivers/STM32F1xx_HAL_Driver/Inc/stm32f1xx_hal_uart.h"
 191              		.file 8 "Drivers/CMSIS/Include/core_cm3.h"
 192              		.file 9 "d:\\stm32\\gcc-arm\\arm-none-eabi\\include\\stdio.h"
 193              		.file 10 "d:\\stm32\\gcc-arm\\arm-none-eabi\\include\\string.h"
ARM GAS  C:\Users\Areg\AppData\Local\Temp\ccSLOuIS.s 			page 6

