ARM GAS  C:\Users\Areg\AppData\Local\Temp\cc1Gg1eQ.s 			page 1


   1              		.syntax unified
   2              		.cpu cortex-m3
   3              		.fpu softvfp
   4              		.eabi_attribute 20, 1
   5              		.eabi_attribute 21, 1
   6              		.eabi_attribute 23, 3
   7              		.eabi_attribute 24, 1
   8              		.eabi_attribute 25, 1
   9              		.eabi_attribute 26, 1
  10              		.eabi_attribute 30, 1
  11              		.eabi_attribute 34, 1
  12              		.eabi_attribute 18, 4
  13              		.thumb
  14              		.syntax unified
  15              		.file	"stm32f1xx_hal_adc_ex.c"
  16              		.text
  17              	.Ltext0:
  18              		.cfi_sections	.debug_frame
  19              		.section	.text.HAL_ADCEx_Calibration_Start,"ax",%progbits
  20              		.align	2
  21              		.global	HAL_ADCEx_Calibration_Start
  22              		.thumb
  23              		.thumb_func
  25              	HAL_ADCEx_Calibration_Start:
  26              	.LFB64:
  27              		.file 1 "Drivers/STM32F1xx_HAL_Driver/Src/stm32f1xx_hal_adc_ex.c"
   1:Drivers/STM32F1xx_HAL_Driver/Src/stm32f1xx_hal_adc_ex.c **** /**
   2:Drivers/STM32F1xx_HAL_Driver/Src/stm32f1xx_hal_adc_ex.c ****   ******************************************************************************
   3:Drivers/STM32F1xx_HAL_Driver/Src/stm32f1xx_hal_adc_ex.c ****   * @file    stm32f1xx_hal_adc_ex.c
   4:Drivers/STM32F1xx_HAL_Driver/Src/stm32f1xx_hal_adc_ex.c ****   * @author  MCD Application Team
   5:Drivers/STM32F1xx_HAL_Driver/Src/stm32f1xx_hal_adc_ex.c ****   * @version V1.1.1
   6:Drivers/STM32F1xx_HAL_Driver/Src/stm32f1xx_hal_adc_ex.c ****   * @date    12-May-2017
   7:Drivers/STM32F1xx_HAL_Driver/Src/stm32f1xx_hal_adc_ex.c ****   * @brief   This file provides firmware functions to manage the following 
   8:Drivers/STM32F1xx_HAL_Driver/Src/stm32f1xx_hal_adc_ex.c ****   *          functionalities of the Analog to Digital Convertor (ADC)
   9:Drivers/STM32F1xx_HAL_Driver/Src/stm32f1xx_hal_adc_ex.c ****   *          peripheral:
  10:Drivers/STM32F1xx_HAL_Driver/Src/stm32f1xx_hal_adc_ex.c ****   *           + Operation functions
  11:Drivers/STM32F1xx_HAL_Driver/Src/stm32f1xx_hal_adc_ex.c ****   *             ++ Start, stop, get result of conversions of injected
  12:Drivers/STM32F1xx_HAL_Driver/Src/stm32f1xx_hal_adc_ex.c ****   *                group, using 2 possible modes: polling, interruption.
  13:Drivers/STM32F1xx_HAL_Driver/Src/stm32f1xx_hal_adc_ex.c ****   *             ++ Multimode feature (available on devices with 2 ADCs or more)
  14:Drivers/STM32F1xx_HAL_Driver/Src/stm32f1xx_hal_adc_ex.c ****   *             ++ Calibration (ADC automatic self-calibration)
  15:Drivers/STM32F1xx_HAL_Driver/Src/stm32f1xx_hal_adc_ex.c ****   *           + Control functions
  16:Drivers/STM32F1xx_HAL_Driver/Src/stm32f1xx_hal_adc_ex.c ****   *             ++ Channels configuration on injected group
  17:Drivers/STM32F1xx_HAL_Driver/Src/stm32f1xx_hal_adc_ex.c ****   *          Other functions (generic functions) are available in file 
  18:Drivers/STM32F1xx_HAL_Driver/Src/stm32f1xx_hal_adc_ex.c ****   *          "stm32f1xx_hal_adc.c".
  19:Drivers/STM32F1xx_HAL_Driver/Src/stm32f1xx_hal_adc_ex.c ****   *
  20:Drivers/STM32F1xx_HAL_Driver/Src/stm32f1xx_hal_adc_ex.c ****   @verbatim
  21:Drivers/STM32F1xx_HAL_Driver/Src/stm32f1xx_hal_adc_ex.c ****   [..] 
  22:Drivers/STM32F1xx_HAL_Driver/Src/stm32f1xx_hal_adc_ex.c ****   (@) Sections "ADC peripheral features" and "How to use this driver" are
  23:Drivers/STM32F1xx_HAL_Driver/Src/stm32f1xx_hal_adc_ex.c ****       available in file of generic functions "stm32f1xx_hal_adc.c".
  24:Drivers/STM32F1xx_HAL_Driver/Src/stm32f1xx_hal_adc_ex.c ****   [..]
  25:Drivers/STM32F1xx_HAL_Driver/Src/stm32f1xx_hal_adc_ex.c ****   @endverbatim
  26:Drivers/STM32F1xx_HAL_Driver/Src/stm32f1xx_hal_adc_ex.c ****   ******************************************************************************
  27:Drivers/STM32F1xx_HAL_Driver/Src/stm32f1xx_hal_adc_ex.c ****   * @attention
  28:Drivers/STM32F1xx_HAL_Driver/Src/stm32f1xx_hal_adc_ex.c ****   *
  29:Drivers/STM32F1xx_HAL_Driver/Src/stm32f1xx_hal_adc_ex.c ****   * <h2><center>&copy; COPYRIGHT(c) 2016 STMicroelectronics</center></h2>
  30:Drivers/STM32F1xx_HAL_Driver/Src/stm32f1xx_hal_adc_ex.c ****   *
  31:Drivers/STM32F1xx_HAL_Driver/Src/stm32f1xx_hal_adc_ex.c ****   * Redistribution and use in source and binary forms, with or without modification,
ARM GAS  C:\Users\Areg\AppData\Local\Temp\cc1Gg1eQ.s 			page 2


  32:Drivers/STM32F1xx_HAL_Driver/Src/stm32f1xx_hal_adc_ex.c ****   * are permitted provided that the following conditions are met:
  33:Drivers/STM32F1xx_HAL_Driver/Src/stm32f1xx_hal_adc_ex.c ****   *   1. Redistributions of source code must retain the above copyright notice,
  34:Drivers/STM32F1xx_HAL_Driver/Src/stm32f1xx_hal_adc_ex.c ****   *      this list of conditions and the following disclaimer.
  35:Drivers/STM32F1xx_HAL_Driver/Src/stm32f1xx_hal_adc_ex.c ****   *   2. Redistributions in binary form must reproduce the above copyright notice,
  36:Drivers/STM32F1xx_HAL_Driver/Src/stm32f1xx_hal_adc_ex.c ****   *      this list of conditions and the following disclaimer in the documentation
  37:Drivers/STM32F1xx_HAL_Driver/Src/stm32f1xx_hal_adc_ex.c ****   *      and/or other materials provided with the distribution.
  38:Drivers/STM32F1xx_HAL_Driver/Src/stm32f1xx_hal_adc_ex.c ****   *   3. Neither the name of STMicroelectronics nor the names of its contributors
  39:Drivers/STM32F1xx_HAL_Driver/Src/stm32f1xx_hal_adc_ex.c ****   *      may be used to endorse or promote products derived from this software
  40:Drivers/STM32F1xx_HAL_Driver/Src/stm32f1xx_hal_adc_ex.c ****   *      without specific prior written permission.
  41:Drivers/STM32F1xx_HAL_Driver/Src/stm32f1xx_hal_adc_ex.c ****   *
  42:Drivers/STM32F1xx_HAL_Driver/Src/stm32f1xx_hal_adc_ex.c ****   * THIS SOFTWARE IS PROVIDED BY THE COPYRIGHT HOLDERS AND CONTRIBUTORS "AS IS"
  43:Drivers/STM32F1xx_HAL_Driver/Src/stm32f1xx_hal_adc_ex.c ****   * AND ANY EXPRESS OR IMPLIED WARRANTIES, INCLUDING, BUT NOT LIMITED TO, THE
  44:Drivers/STM32F1xx_HAL_Driver/Src/stm32f1xx_hal_adc_ex.c ****   * IMPLIED WARRANTIES OF MERCHANTABILITY AND FITNESS FOR A PARTICULAR PURPOSE ARE
  45:Drivers/STM32F1xx_HAL_Driver/Src/stm32f1xx_hal_adc_ex.c ****   * DISCLAIMED. IN NO EVENT SHALL THE COPYRIGHT HOLDER OR CONTRIBUTORS BE LIABLE
  46:Drivers/STM32F1xx_HAL_Driver/Src/stm32f1xx_hal_adc_ex.c ****   * FOR ANY DIRECT, INDIRECT, INCIDENTAL, SPECIAL, EXEMPLARY, OR CONSEQUENTIAL
  47:Drivers/STM32F1xx_HAL_Driver/Src/stm32f1xx_hal_adc_ex.c ****   * DAMAGES (INCLUDING, BUT NOT LIMITED TO, PROCUREMENT OF SUBSTITUTE GOODS OR
  48:Drivers/STM32F1xx_HAL_Driver/Src/stm32f1xx_hal_adc_ex.c ****   * SERVICES; LOSS OF USE, DATA, OR PROFITS; OR BUSINESS INTERRUPTION) HOWEVER
  49:Drivers/STM32F1xx_HAL_Driver/Src/stm32f1xx_hal_adc_ex.c ****   * CAUSED AND ON ANY THEORY OF LIABILITY, WHETHER IN CONTRACT, STRICT LIABILITY,
  50:Drivers/STM32F1xx_HAL_Driver/Src/stm32f1xx_hal_adc_ex.c ****   * OR TORT (INCLUDING NEGLIGENCE OR OTHERWISE) ARISING IN ANY WAY OUT OF THE USE
  51:Drivers/STM32F1xx_HAL_Driver/Src/stm32f1xx_hal_adc_ex.c ****   * OF THIS SOFTWARE, EVEN IF ADVISED OF THE POSSIBILITY OF SUCH DAMAGE.
  52:Drivers/STM32F1xx_HAL_Driver/Src/stm32f1xx_hal_adc_ex.c ****   *
  53:Drivers/STM32F1xx_HAL_Driver/Src/stm32f1xx_hal_adc_ex.c ****   ******************************************************************************  
  54:Drivers/STM32F1xx_HAL_Driver/Src/stm32f1xx_hal_adc_ex.c ****   */
  55:Drivers/STM32F1xx_HAL_Driver/Src/stm32f1xx_hal_adc_ex.c **** 
  56:Drivers/STM32F1xx_HAL_Driver/Src/stm32f1xx_hal_adc_ex.c **** /* Includes ------------------------------------------------------------------*/
  57:Drivers/STM32F1xx_HAL_Driver/Src/stm32f1xx_hal_adc_ex.c **** #include "stm32f1xx_hal.h"
  58:Drivers/STM32F1xx_HAL_Driver/Src/stm32f1xx_hal_adc_ex.c **** 
  59:Drivers/STM32F1xx_HAL_Driver/Src/stm32f1xx_hal_adc_ex.c **** /** @addtogroup STM32F1xx_HAL_Driver
  60:Drivers/STM32F1xx_HAL_Driver/Src/stm32f1xx_hal_adc_ex.c ****   * @{
  61:Drivers/STM32F1xx_HAL_Driver/Src/stm32f1xx_hal_adc_ex.c ****   */
  62:Drivers/STM32F1xx_HAL_Driver/Src/stm32f1xx_hal_adc_ex.c **** 
  63:Drivers/STM32F1xx_HAL_Driver/Src/stm32f1xx_hal_adc_ex.c **** /** @defgroup ADCEx ADCEx
  64:Drivers/STM32F1xx_HAL_Driver/Src/stm32f1xx_hal_adc_ex.c ****   * @brief ADC Extension HAL module driver
  65:Drivers/STM32F1xx_HAL_Driver/Src/stm32f1xx_hal_adc_ex.c ****   * @{
  66:Drivers/STM32F1xx_HAL_Driver/Src/stm32f1xx_hal_adc_ex.c ****   */
  67:Drivers/STM32F1xx_HAL_Driver/Src/stm32f1xx_hal_adc_ex.c **** 
  68:Drivers/STM32F1xx_HAL_Driver/Src/stm32f1xx_hal_adc_ex.c **** #ifdef HAL_ADC_MODULE_ENABLED
  69:Drivers/STM32F1xx_HAL_Driver/Src/stm32f1xx_hal_adc_ex.c **** 
  70:Drivers/STM32F1xx_HAL_Driver/Src/stm32f1xx_hal_adc_ex.c **** /* Private typedef -----------------------------------------------------------*/
  71:Drivers/STM32F1xx_HAL_Driver/Src/stm32f1xx_hal_adc_ex.c **** /* Private define ------------------------------------------------------------*/
  72:Drivers/STM32F1xx_HAL_Driver/Src/stm32f1xx_hal_adc_ex.c **** /** @defgroup ADCEx_Private_Constants ADCEx Private Constants
  73:Drivers/STM32F1xx_HAL_Driver/Src/stm32f1xx_hal_adc_ex.c ****   * @{
  74:Drivers/STM32F1xx_HAL_Driver/Src/stm32f1xx_hal_adc_ex.c ****   */
  75:Drivers/STM32F1xx_HAL_Driver/Src/stm32f1xx_hal_adc_ex.c **** 
  76:Drivers/STM32F1xx_HAL_Driver/Src/stm32f1xx_hal_adc_ex.c ****   /* Delay for ADC calibration:                                               */
  77:Drivers/STM32F1xx_HAL_Driver/Src/stm32f1xx_hal_adc_ex.c ****   /* Hardware prerequisite before starting a calibration: the ADC must have   */
  78:Drivers/STM32F1xx_HAL_Driver/Src/stm32f1xx_hal_adc_ex.c ****   /* been in power-on state for at least two ADC clock cycles.                */
  79:Drivers/STM32F1xx_HAL_Driver/Src/stm32f1xx_hal_adc_ex.c ****   /* Unit: ADC clock cycles                                                   */
  80:Drivers/STM32F1xx_HAL_Driver/Src/stm32f1xx_hal_adc_ex.c ****   #define ADC_PRECALIBRATION_DELAY_ADCCLOCKCYCLES       2U
  81:Drivers/STM32F1xx_HAL_Driver/Src/stm32f1xx_hal_adc_ex.c **** 
  82:Drivers/STM32F1xx_HAL_Driver/Src/stm32f1xx_hal_adc_ex.c ****   /* Timeout value for ADC calibration                                        */
  83:Drivers/STM32F1xx_HAL_Driver/Src/stm32f1xx_hal_adc_ex.c ****   /* Value defined to be higher than worst cases: low clocks freq,            */
  84:Drivers/STM32F1xx_HAL_Driver/Src/stm32f1xx_hal_adc_ex.c ****   /* maximum prescaler.                                                       */
  85:Drivers/STM32F1xx_HAL_Driver/Src/stm32f1xx_hal_adc_ex.c ****   /* Ex of profile low frequency : Clock source at 0.1 MHz, ADC clock         */
  86:Drivers/STM32F1xx_HAL_Driver/Src/stm32f1xx_hal_adc_ex.c ****   /* prescaler 4, sampling time 12.5 ADC clock cycles, resolution 12 bits.    */
  87:Drivers/STM32F1xx_HAL_Driver/Src/stm32f1xx_hal_adc_ex.c ****   /* Unit: ms                                                                 */
  88:Drivers/STM32F1xx_HAL_Driver/Src/stm32f1xx_hal_adc_ex.c ****   #define ADC_CALIBRATION_TIMEOUT          10U
ARM GAS  C:\Users\Areg\AppData\Local\Temp\cc1Gg1eQ.s 			page 3


  89:Drivers/STM32F1xx_HAL_Driver/Src/stm32f1xx_hal_adc_ex.c **** 
  90:Drivers/STM32F1xx_HAL_Driver/Src/stm32f1xx_hal_adc_ex.c ****   /* Delay for temperature sensor stabilization time.                         */
  91:Drivers/STM32F1xx_HAL_Driver/Src/stm32f1xx_hal_adc_ex.c ****   /* Maximum delay is 10us (refer to device datasheet, parameter tSTART).     */
  92:Drivers/STM32F1xx_HAL_Driver/Src/stm32f1xx_hal_adc_ex.c ****   /* Unit: us                                                                 */
  93:Drivers/STM32F1xx_HAL_Driver/Src/stm32f1xx_hal_adc_ex.c ****   #define ADC_TEMPSENSOR_DELAY_US         10U
  94:Drivers/STM32F1xx_HAL_Driver/Src/stm32f1xx_hal_adc_ex.c **** 
  95:Drivers/STM32F1xx_HAL_Driver/Src/stm32f1xx_hal_adc_ex.c **** /**
  96:Drivers/STM32F1xx_HAL_Driver/Src/stm32f1xx_hal_adc_ex.c ****   * @}
  97:Drivers/STM32F1xx_HAL_Driver/Src/stm32f1xx_hal_adc_ex.c ****   */
  98:Drivers/STM32F1xx_HAL_Driver/Src/stm32f1xx_hal_adc_ex.c **** 
  99:Drivers/STM32F1xx_HAL_Driver/Src/stm32f1xx_hal_adc_ex.c **** /* Private macro -------------------------------------------------------------*/
 100:Drivers/STM32F1xx_HAL_Driver/Src/stm32f1xx_hal_adc_ex.c **** /* Private variables ---------------------------------------------------------*/
 101:Drivers/STM32F1xx_HAL_Driver/Src/stm32f1xx_hal_adc_ex.c **** /* Private function prototypes -----------------------------------------------*/
 102:Drivers/STM32F1xx_HAL_Driver/Src/stm32f1xx_hal_adc_ex.c **** /* Private functions ---------------------------------------------------------*/
 103:Drivers/STM32F1xx_HAL_Driver/Src/stm32f1xx_hal_adc_ex.c **** 
 104:Drivers/STM32F1xx_HAL_Driver/Src/stm32f1xx_hal_adc_ex.c **** /** @defgroup ADCEx_Exported_Functions ADCEx Exported Functions
 105:Drivers/STM32F1xx_HAL_Driver/Src/stm32f1xx_hal_adc_ex.c ****   * @{
 106:Drivers/STM32F1xx_HAL_Driver/Src/stm32f1xx_hal_adc_ex.c ****   */
 107:Drivers/STM32F1xx_HAL_Driver/Src/stm32f1xx_hal_adc_ex.c **** 
 108:Drivers/STM32F1xx_HAL_Driver/Src/stm32f1xx_hal_adc_ex.c **** /** @defgroup ADCEx_Exported_Functions_Group1 Extended Extended IO operation functions
 109:Drivers/STM32F1xx_HAL_Driver/Src/stm32f1xx_hal_adc_ex.c ****  *  @brief    Extended Extended Input and Output operation functions
 110:Drivers/STM32F1xx_HAL_Driver/Src/stm32f1xx_hal_adc_ex.c ****  *
 111:Drivers/STM32F1xx_HAL_Driver/Src/stm32f1xx_hal_adc_ex.c **** @verbatim    
 112:Drivers/STM32F1xx_HAL_Driver/Src/stm32f1xx_hal_adc_ex.c ****  ===============================================================================
 113:Drivers/STM32F1xx_HAL_Driver/Src/stm32f1xx_hal_adc_ex.c ****                       ##### IO operation functions #####
 114:Drivers/STM32F1xx_HAL_Driver/Src/stm32f1xx_hal_adc_ex.c ****  ===============================================================================
 115:Drivers/STM32F1xx_HAL_Driver/Src/stm32f1xx_hal_adc_ex.c ****     [..]  This section provides functions allowing to:
 116:Drivers/STM32F1xx_HAL_Driver/Src/stm32f1xx_hal_adc_ex.c ****       (+) Start conversion of injected group.
 117:Drivers/STM32F1xx_HAL_Driver/Src/stm32f1xx_hal_adc_ex.c ****       (+) Stop conversion of injected group.
 118:Drivers/STM32F1xx_HAL_Driver/Src/stm32f1xx_hal_adc_ex.c ****       (+) Poll for conversion complete on injected group.
 119:Drivers/STM32F1xx_HAL_Driver/Src/stm32f1xx_hal_adc_ex.c ****       (+) Get result of injected channel conversion.
 120:Drivers/STM32F1xx_HAL_Driver/Src/stm32f1xx_hal_adc_ex.c ****       (+) Start conversion of injected group and enable interruptions.
 121:Drivers/STM32F1xx_HAL_Driver/Src/stm32f1xx_hal_adc_ex.c ****       (+) Stop conversion of injected group and disable interruptions.
 122:Drivers/STM32F1xx_HAL_Driver/Src/stm32f1xx_hal_adc_ex.c **** 
 123:Drivers/STM32F1xx_HAL_Driver/Src/stm32f1xx_hal_adc_ex.c ****       (+) Start multimode and enable DMA transfer.
 124:Drivers/STM32F1xx_HAL_Driver/Src/stm32f1xx_hal_adc_ex.c ****       (+) Stop multimode and disable ADC DMA transfer.
 125:Drivers/STM32F1xx_HAL_Driver/Src/stm32f1xx_hal_adc_ex.c ****       (+) Get result of multimode conversion.
 126:Drivers/STM32F1xx_HAL_Driver/Src/stm32f1xx_hal_adc_ex.c **** 
 127:Drivers/STM32F1xx_HAL_Driver/Src/stm32f1xx_hal_adc_ex.c ****       (+) Perform the ADC self-calibration for single or differential ending.
 128:Drivers/STM32F1xx_HAL_Driver/Src/stm32f1xx_hal_adc_ex.c ****       (+) Get calibration factors for single or differential ending.
 129:Drivers/STM32F1xx_HAL_Driver/Src/stm32f1xx_hal_adc_ex.c ****       (+) Set calibration factors for single or differential ending.
 130:Drivers/STM32F1xx_HAL_Driver/Src/stm32f1xx_hal_adc_ex.c ****       
 131:Drivers/STM32F1xx_HAL_Driver/Src/stm32f1xx_hal_adc_ex.c **** @endverbatim
 132:Drivers/STM32F1xx_HAL_Driver/Src/stm32f1xx_hal_adc_ex.c ****   * @{
 133:Drivers/STM32F1xx_HAL_Driver/Src/stm32f1xx_hal_adc_ex.c ****   */
 134:Drivers/STM32F1xx_HAL_Driver/Src/stm32f1xx_hal_adc_ex.c **** 
 135:Drivers/STM32F1xx_HAL_Driver/Src/stm32f1xx_hal_adc_ex.c **** /**
 136:Drivers/STM32F1xx_HAL_Driver/Src/stm32f1xx_hal_adc_ex.c ****   * @brief  Perform an ADC automatic self-calibration
 137:Drivers/STM32F1xx_HAL_Driver/Src/stm32f1xx_hal_adc_ex.c ****   *         Calibration prerequisite: ADC must be disabled (execute this
 138:Drivers/STM32F1xx_HAL_Driver/Src/stm32f1xx_hal_adc_ex.c ****   *         function before HAL_ADC_Start() or after HAL_ADC_Stop() ).
 139:Drivers/STM32F1xx_HAL_Driver/Src/stm32f1xx_hal_adc_ex.c ****   *         During calibration process, ADC is enabled. ADC is let enabled at
 140:Drivers/STM32F1xx_HAL_Driver/Src/stm32f1xx_hal_adc_ex.c ****   *         the completion of this function.
 141:Drivers/STM32F1xx_HAL_Driver/Src/stm32f1xx_hal_adc_ex.c ****   * @param  hadc: ADC handle
 142:Drivers/STM32F1xx_HAL_Driver/Src/stm32f1xx_hal_adc_ex.c ****   * @retval HAL status
 143:Drivers/STM32F1xx_HAL_Driver/Src/stm32f1xx_hal_adc_ex.c ****   */
 144:Drivers/STM32F1xx_HAL_Driver/Src/stm32f1xx_hal_adc_ex.c **** HAL_StatusTypeDef HAL_ADCEx_Calibration_Start(ADC_HandleTypeDef* hadc)
 145:Drivers/STM32F1xx_HAL_Driver/Src/stm32f1xx_hal_adc_ex.c **** {
ARM GAS  C:\Users\Areg\AppData\Local\Temp\cc1Gg1eQ.s 			page 4


  28              		.loc 1 145 0
  29              		.cfi_startproc
  30              		@ args = 0, pretend = 0, frame = 8
  31              		@ frame_needed = 0, uses_anonymous_args = 0
  32              	.LVL0:
  33 0000 70B5     		push	{r4, r5, r6, lr}
  34              	.LCFI0:
  35              		.cfi_def_cfa_offset 16
  36              		.cfi_offset 4, -16
  37              		.cfi_offset 5, -12
  38              		.cfi_offset 6, -8
  39              		.cfi_offset 14, -4
  40 0002 82B0     		sub	sp, sp, #8
  41              	.LCFI1:
  42              		.cfi_def_cfa_offset 24
  43              	.LVL1:
 146:Drivers/STM32F1xx_HAL_Driver/Src/stm32f1xx_hal_adc_ex.c ****   HAL_StatusTypeDef tmp_hal_status = HAL_OK;
 147:Drivers/STM32F1xx_HAL_Driver/Src/stm32f1xx_hal_adc_ex.c ****   uint32_t tickstart;
 148:Drivers/STM32F1xx_HAL_Driver/Src/stm32f1xx_hal_adc_ex.c ****   __IO uint32_t wait_loop_index = 0U;
  44              		.loc 1 148 0
  45 0004 0023     		movs	r3, #0
  46 0006 0193     		str	r3, [sp, #4]
 149:Drivers/STM32F1xx_HAL_Driver/Src/stm32f1xx_hal_adc_ex.c ****   
 150:Drivers/STM32F1xx_HAL_Driver/Src/stm32f1xx_hal_adc_ex.c ****   /* Check the parameters */
 151:Drivers/STM32F1xx_HAL_Driver/Src/stm32f1xx_hal_adc_ex.c ****   assert_param(IS_ADC_ALL_INSTANCE(hadc->Instance));
 152:Drivers/STM32F1xx_HAL_Driver/Src/stm32f1xx_hal_adc_ex.c **** 
 153:Drivers/STM32F1xx_HAL_Driver/Src/stm32f1xx_hal_adc_ex.c ****   /* Process locked */
 154:Drivers/STM32F1xx_HAL_Driver/Src/stm32f1xx_hal_adc_ex.c ****   __HAL_LOCK(hadc);
  47              		.loc 1 154 0
  48 0008 90F82430 		ldrb	r3, [r0, #36]	@ zero_extendqisi2
  49 000c 012B     		cmp	r3, #1
  50 000e 69D0     		beq	.L10
  51 0010 0446     		mov	r4, r0
  52              		.loc 1 154 0 is_stmt 0 discriminator 2
  53 0012 0123     		movs	r3, #1
  54 0014 80F82430 		strb	r3, [r0, #36]
 155:Drivers/STM32F1xx_HAL_Driver/Src/stm32f1xx_hal_adc_ex.c ****     
 156:Drivers/STM32F1xx_HAL_Driver/Src/stm32f1xx_hal_adc_ex.c ****   /* 1. Calibration prerequisite:                                             */
 157:Drivers/STM32F1xx_HAL_Driver/Src/stm32f1xx_hal_adc_ex.c ****   /*    - ADC must be disabled for at least two ADC clock cycles in disable   */
 158:Drivers/STM32F1xx_HAL_Driver/Src/stm32f1xx_hal_adc_ex.c ****   /*      mode before ADC enable                                              */
 159:Drivers/STM32F1xx_HAL_Driver/Src/stm32f1xx_hal_adc_ex.c ****   /* Stop potential conversion on going, on regular and injected groups       */
 160:Drivers/STM32F1xx_HAL_Driver/Src/stm32f1xx_hal_adc_ex.c ****   /* Disable ADC peripheral */
 161:Drivers/STM32F1xx_HAL_Driver/Src/stm32f1xx_hal_adc_ex.c ****   tmp_hal_status = ADC_ConversionStop_Disable(hadc);
  55              		.loc 1 161 0 is_stmt 1 discriminator 2
  56 0018 FFF7FEFF 		bl	ADC_ConversionStop_Disable
  57              	.LVL2:
 162:Drivers/STM32F1xx_HAL_Driver/Src/stm32f1xx_hal_adc_ex.c ****   
 163:Drivers/STM32F1xx_HAL_Driver/Src/stm32f1xx_hal_adc_ex.c ****   /* Check if ADC is effectively disabled */
 164:Drivers/STM32F1xx_HAL_Driver/Src/stm32f1xx_hal_adc_ex.c ****   if (tmp_hal_status == HAL_OK)
  58              		.loc 1 164 0 discriminator 2
  59 001c 0546     		mov	r5, r0
  60 001e 0028     		cmp	r0, #0
  61 0020 5BD1     		bne	.L3
 165:Drivers/STM32F1xx_HAL_Driver/Src/stm32f1xx_hal_adc_ex.c ****   {
 166:Drivers/STM32F1xx_HAL_Driver/Src/stm32f1xx_hal_adc_ex.c ****     /* Set ADC state */
 167:Drivers/STM32F1xx_HAL_Driver/Src/stm32f1xx_hal_adc_ex.c ****     ADC_STATE_CLR_SET(hadc->State,
  62              		.loc 1 167 0
ARM GAS  C:\Users\Areg\AppData\Local\Temp\cc1Gg1eQ.s 			page 5


  63 0022 A36A     		ldr	r3, [r4, #40]
  64 0024 23F48853 		bic	r3, r3, #4352
  65 0028 23F00203 		bic	r3, r3, #2
  66 002c 43F00203 		orr	r3, r3, #2
  67 0030 A362     		str	r3, [r4, #40]
 168:Drivers/STM32F1xx_HAL_Driver/Src/stm32f1xx_hal_adc_ex.c ****                       HAL_ADC_STATE_REG_BUSY | HAL_ADC_STATE_INJ_BUSY,
 169:Drivers/STM32F1xx_HAL_Driver/Src/stm32f1xx_hal_adc_ex.c ****                       HAL_ADC_STATE_BUSY_INTERNAL);
 170:Drivers/STM32F1xx_HAL_Driver/Src/stm32f1xx_hal_adc_ex.c ****     
 171:Drivers/STM32F1xx_HAL_Driver/Src/stm32f1xx_hal_adc_ex.c ****     /* Hardware prerequisite: delay before starting the calibration.          */
 172:Drivers/STM32F1xx_HAL_Driver/Src/stm32f1xx_hal_adc_ex.c ****     /*  - Computation of CPU clock cycles corresponding to ADC clock cycles.  */
 173:Drivers/STM32F1xx_HAL_Driver/Src/stm32f1xx_hal_adc_ex.c ****     /*  - Wait for the expected ADC clock cycles delay */
 174:Drivers/STM32F1xx_HAL_Driver/Src/stm32f1xx_hal_adc_ex.c ****     wait_loop_index = ((SystemCoreClock
 175:Drivers/STM32F1xx_HAL_Driver/Src/stm32f1xx_hal_adc_ex.c ****                         / HAL_RCCEx_GetPeriphCLKFreq(RCC_PERIPHCLK_ADC))
  68              		.loc 1 175 0
  69 0032 2E4B     		ldr	r3, .L12
  70 0034 1E68     		ldr	r6, [r3]
  71 0036 0220     		movs	r0, #2
  72              	.LVL3:
  73 0038 FFF7FEFF 		bl	HAL_RCCEx_GetPeriphCLKFreq
  74              	.LVL4:
  75 003c B6FBF0F0 		udiv	r0, r6, r0
 176:Drivers/STM32F1xx_HAL_Driver/Src/stm32f1xx_hal_adc_ex.c ****                        * ADC_PRECALIBRATION_DELAY_ADCCLOCKCYCLES        );
  76              		.loc 1 176 0
  77 0040 4000     		lsls	r0, r0, #1
 174:Drivers/STM32F1xx_HAL_Driver/Src/stm32f1xx_hal_adc_ex.c ****                         / HAL_RCCEx_GetPeriphCLKFreq(RCC_PERIPHCLK_ADC))
  78              		.loc 1 174 0
  79 0042 0190     		str	r0, [sp, #4]
 177:Drivers/STM32F1xx_HAL_Driver/Src/stm32f1xx_hal_adc_ex.c **** 
 178:Drivers/STM32F1xx_HAL_Driver/Src/stm32f1xx_hal_adc_ex.c ****     while(wait_loop_index != 0U)
  80              		.loc 1 178 0
  81 0044 02E0     		b	.L4
  82              	.L5:
 179:Drivers/STM32F1xx_HAL_Driver/Src/stm32f1xx_hal_adc_ex.c ****     {
 180:Drivers/STM32F1xx_HAL_Driver/Src/stm32f1xx_hal_adc_ex.c ****       wait_loop_index--;
  83              		.loc 1 180 0
  84 0046 019B     		ldr	r3, [sp, #4]
  85 0048 013B     		subs	r3, r3, #1
  86 004a 0193     		str	r3, [sp, #4]
  87              	.L4:
 178:Drivers/STM32F1xx_HAL_Driver/Src/stm32f1xx_hal_adc_ex.c ****     {
  88              		.loc 1 178 0
  89 004c 019B     		ldr	r3, [sp, #4]
  90 004e 002B     		cmp	r3, #0
  91 0050 F9D1     		bne	.L5
 181:Drivers/STM32F1xx_HAL_Driver/Src/stm32f1xx_hal_adc_ex.c ****     }
 182:Drivers/STM32F1xx_HAL_Driver/Src/stm32f1xx_hal_adc_ex.c ****     
 183:Drivers/STM32F1xx_HAL_Driver/Src/stm32f1xx_hal_adc_ex.c ****     /* 2. Enable the ADC peripheral */
 184:Drivers/STM32F1xx_HAL_Driver/Src/stm32f1xx_hal_adc_ex.c ****     ADC_Enable(hadc);
  92              		.loc 1 184 0
  93 0052 2046     		mov	r0, r4
  94 0054 FFF7FEFF 		bl	ADC_Enable
  95              	.LVL5:
 185:Drivers/STM32F1xx_HAL_Driver/Src/stm32f1xx_hal_adc_ex.c ****     
 186:Drivers/STM32F1xx_HAL_Driver/Src/stm32f1xx_hal_adc_ex.c ****     /* 3. Resets ADC calibration registers */  
 187:Drivers/STM32F1xx_HAL_Driver/Src/stm32f1xx_hal_adc_ex.c ****     SET_BIT(hadc->Instance->CR2, ADC_CR2_RSTCAL);
  96              		.loc 1 187 0
  97 0058 2268     		ldr	r2, [r4]
ARM GAS  C:\Users\Areg\AppData\Local\Temp\cc1Gg1eQ.s 			page 6


  98 005a 9368     		ldr	r3, [r2, #8]
  99 005c 43F00803 		orr	r3, r3, #8
 100 0060 9360     		str	r3, [r2, #8]
 188:Drivers/STM32F1xx_HAL_Driver/Src/stm32f1xx_hal_adc_ex.c ****     
 189:Drivers/STM32F1xx_HAL_Driver/Src/stm32f1xx_hal_adc_ex.c ****     tickstart = HAL_GetTick();  
 101              		.loc 1 189 0
 102 0062 FFF7FEFF 		bl	HAL_GetTick
 103              	.LVL6:
 104 0066 0646     		mov	r6, r0
 105              	.LVL7:
 190:Drivers/STM32F1xx_HAL_Driver/Src/stm32f1xx_hal_adc_ex.c **** 
 191:Drivers/STM32F1xx_HAL_Driver/Src/stm32f1xx_hal_adc_ex.c ****     /* Wait for calibration reset completion */
 192:Drivers/STM32F1xx_HAL_Driver/Src/stm32f1xx_hal_adc_ex.c ****     while(HAL_IS_BIT_SET(hadc->Instance->CR2, ADC_CR2_RSTCAL))
 106              		.loc 1 192 0
 107 0068 0FE0     		b	.L6
 108              	.LVL8:
 109              	.L7:
 193:Drivers/STM32F1xx_HAL_Driver/Src/stm32f1xx_hal_adc_ex.c ****     {
 194:Drivers/STM32F1xx_HAL_Driver/Src/stm32f1xx_hal_adc_ex.c ****       if((HAL_GetTick() - tickstart) > ADC_CALIBRATION_TIMEOUT)
 110              		.loc 1 194 0
 111 006a FFF7FEFF 		bl	HAL_GetTick
 112              	.LVL9:
 113 006e 801B     		subs	r0, r0, r6
 114 0070 0A28     		cmp	r0, #10
 115 0072 0AD9     		bls	.L6
 195:Drivers/STM32F1xx_HAL_Driver/Src/stm32f1xx_hal_adc_ex.c ****       {
 196:Drivers/STM32F1xx_HAL_Driver/Src/stm32f1xx_hal_adc_ex.c ****         /* Update ADC state machine to error */
 197:Drivers/STM32F1xx_HAL_Driver/Src/stm32f1xx_hal_adc_ex.c ****         ADC_STATE_CLR_SET(hadc->State,
 116              		.loc 1 197 0
 117 0074 A36A     		ldr	r3, [r4, #40]
 118 0076 23F01203 		bic	r3, r3, #18
 119 007a 43F01003 		orr	r3, r3, #16
 120 007e A362     		str	r3, [r4, #40]
 198:Drivers/STM32F1xx_HAL_Driver/Src/stm32f1xx_hal_adc_ex.c ****                           HAL_ADC_STATE_BUSY_INTERNAL,
 199:Drivers/STM32F1xx_HAL_Driver/Src/stm32f1xx_hal_adc_ex.c ****                           HAL_ADC_STATE_ERROR_INTERNAL);
 200:Drivers/STM32F1xx_HAL_Driver/Src/stm32f1xx_hal_adc_ex.c ****         
 201:Drivers/STM32F1xx_HAL_Driver/Src/stm32f1xx_hal_adc_ex.c ****         /* Process unlocked */
 202:Drivers/STM32F1xx_HAL_Driver/Src/stm32f1xx_hal_adc_ex.c ****         __HAL_UNLOCK(hadc);
 121              		.loc 1 202 0
 122 0080 0023     		movs	r3, #0
 123 0082 84F82430 		strb	r3, [r4, #36]
 203:Drivers/STM32F1xx_HAL_Driver/Src/stm32f1xx_hal_adc_ex.c ****         
 204:Drivers/STM32F1xx_HAL_Driver/Src/stm32f1xx_hal_adc_ex.c ****         return HAL_ERROR;
 124              		.loc 1 204 0
 125 0086 0120     		movs	r0, #1
 126 0088 2DE0     		b	.L2
 127              	.L6:
 192:Drivers/STM32F1xx_HAL_Driver/Src/stm32f1xx_hal_adc_ex.c ****     {
 128              		.loc 1 192 0
 129 008a 2368     		ldr	r3, [r4]
 130 008c 9A68     		ldr	r2, [r3, #8]
 131 008e 12F0080F 		tst	r2, #8
 132 0092 EAD1     		bne	.L7
 205:Drivers/STM32F1xx_HAL_Driver/Src/stm32f1xx_hal_adc_ex.c ****       }
 206:Drivers/STM32F1xx_HAL_Driver/Src/stm32f1xx_hal_adc_ex.c ****     }
 207:Drivers/STM32F1xx_HAL_Driver/Src/stm32f1xx_hal_adc_ex.c ****     
 208:Drivers/STM32F1xx_HAL_Driver/Src/stm32f1xx_hal_adc_ex.c ****     
ARM GAS  C:\Users\Areg\AppData\Local\Temp\cc1Gg1eQ.s 			page 7


 209:Drivers/STM32F1xx_HAL_Driver/Src/stm32f1xx_hal_adc_ex.c ****     /* 4. Start ADC calibration */
 210:Drivers/STM32F1xx_HAL_Driver/Src/stm32f1xx_hal_adc_ex.c ****     SET_BIT(hadc->Instance->CR2, ADC_CR2_CAL);
 133              		.loc 1 210 0
 134 0094 9A68     		ldr	r2, [r3, #8]
 135 0096 42F00402 		orr	r2, r2, #4
 136 009a 9A60     		str	r2, [r3, #8]
 211:Drivers/STM32F1xx_HAL_Driver/Src/stm32f1xx_hal_adc_ex.c ****     
 212:Drivers/STM32F1xx_HAL_Driver/Src/stm32f1xx_hal_adc_ex.c ****     tickstart = HAL_GetTick();  
 137              		.loc 1 212 0
 138 009c FFF7FEFF 		bl	HAL_GetTick
 139              	.LVL10:
 140 00a0 0646     		mov	r6, r0
 141              	.LVL11:
 213:Drivers/STM32F1xx_HAL_Driver/Src/stm32f1xx_hal_adc_ex.c **** 
 214:Drivers/STM32F1xx_HAL_Driver/Src/stm32f1xx_hal_adc_ex.c ****     /* Wait for calibration completion */
 215:Drivers/STM32F1xx_HAL_Driver/Src/stm32f1xx_hal_adc_ex.c ****     while(HAL_IS_BIT_SET(hadc->Instance->CR2, ADC_CR2_CAL))
 142              		.loc 1 215 0
 143 00a2 0FE0     		b	.L8
 144              	.LVL12:
 145              	.L9:
 216:Drivers/STM32F1xx_HAL_Driver/Src/stm32f1xx_hal_adc_ex.c ****     {
 217:Drivers/STM32F1xx_HAL_Driver/Src/stm32f1xx_hal_adc_ex.c ****       if((HAL_GetTick() - tickstart) > ADC_CALIBRATION_TIMEOUT)
 146              		.loc 1 217 0
 147 00a4 FFF7FEFF 		bl	HAL_GetTick
 148              	.LVL13:
 149 00a8 801B     		subs	r0, r0, r6
 150 00aa 0A28     		cmp	r0, #10
 151 00ac 0AD9     		bls	.L8
 218:Drivers/STM32F1xx_HAL_Driver/Src/stm32f1xx_hal_adc_ex.c ****       {
 219:Drivers/STM32F1xx_HAL_Driver/Src/stm32f1xx_hal_adc_ex.c ****         /* Update ADC state machine to error */
 220:Drivers/STM32F1xx_HAL_Driver/Src/stm32f1xx_hal_adc_ex.c ****         ADC_STATE_CLR_SET(hadc->State,
 152              		.loc 1 220 0
 153 00ae A36A     		ldr	r3, [r4, #40]
 154 00b0 23F01203 		bic	r3, r3, #18
 155 00b4 43F01003 		orr	r3, r3, #16
 156 00b8 A362     		str	r3, [r4, #40]
 221:Drivers/STM32F1xx_HAL_Driver/Src/stm32f1xx_hal_adc_ex.c ****                           HAL_ADC_STATE_BUSY_INTERNAL,
 222:Drivers/STM32F1xx_HAL_Driver/Src/stm32f1xx_hal_adc_ex.c ****                           HAL_ADC_STATE_ERROR_INTERNAL);
 223:Drivers/STM32F1xx_HAL_Driver/Src/stm32f1xx_hal_adc_ex.c ****         
 224:Drivers/STM32F1xx_HAL_Driver/Src/stm32f1xx_hal_adc_ex.c ****         /* Process unlocked */
 225:Drivers/STM32F1xx_HAL_Driver/Src/stm32f1xx_hal_adc_ex.c ****         __HAL_UNLOCK(hadc);
 157              		.loc 1 225 0
 158 00ba 0023     		movs	r3, #0
 159 00bc 84F82430 		strb	r3, [r4, #36]
 226:Drivers/STM32F1xx_HAL_Driver/Src/stm32f1xx_hal_adc_ex.c ****         
 227:Drivers/STM32F1xx_HAL_Driver/Src/stm32f1xx_hal_adc_ex.c ****         return HAL_ERROR;
 160              		.loc 1 227 0
 161 00c0 0120     		movs	r0, #1
 162 00c2 10E0     		b	.L2
 163              	.L8:
 215:Drivers/STM32F1xx_HAL_Driver/Src/stm32f1xx_hal_adc_ex.c ****     {
 164              		.loc 1 215 0
 165 00c4 2368     		ldr	r3, [r4]
 166 00c6 9B68     		ldr	r3, [r3, #8]
 167 00c8 13F0040F 		tst	r3, #4
 168 00cc EAD1     		bne	.L9
 228:Drivers/STM32F1xx_HAL_Driver/Src/stm32f1xx_hal_adc_ex.c ****       }
ARM GAS  C:\Users\Areg\AppData\Local\Temp\cc1Gg1eQ.s 			page 8


 229:Drivers/STM32F1xx_HAL_Driver/Src/stm32f1xx_hal_adc_ex.c ****     }
 230:Drivers/STM32F1xx_HAL_Driver/Src/stm32f1xx_hal_adc_ex.c ****     
 231:Drivers/STM32F1xx_HAL_Driver/Src/stm32f1xx_hal_adc_ex.c ****     /* Set ADC state */
 232:Drivers/STM32F1xx_HAL_Driver/Src/stm32f1xx_hal_adc_ex.c ****     ADC_STATE_CLR_SET(hadc->State,
 169              		.loc 1 232 0
 170 00ce A36A     		ldr	r3, [r4, #40]
 171 00d0 23F00303 		bic	r3, r3, #3
 172 00d4 43F00103 		orr	r3, r3, #1
 173 00d8 A362     		str	r3, [r4, #40]
 174              	.LVL14:
 175              	.L3:
 233:Drivers/STM32F1xx_HAL_Driver/Src/stm32f1xx_hal_adc_ex.c ****                       HAL_ADC_STATE_BUSY_INTERNAL,
 234:Drivers/STM32F1xx_HAL_Driver/Src/stm32f1xx_hal_adc_ex.c ****                       HAL_ADC_STATE_READY);
 235:Drivers/STM32F1xx_HAL_Driver/Src/stm32f1xx_hal_adc_ex.c ****   }
 236:Drivers/STM32F1xx_HAL_Driver/Src/stm32f1xx_hal_adc_ex.c ****   
 237:Drivers/STM32F1xx_HAL_Driver/Src/stm32f1xx_hal_adc_ex.c ****   /* Process unlocked */
 238:Drivers/STM32F1xx_HAL_Driver/Src/stm32f1xx_hal_adc_ex.c ****   __HAL_UNLOCK(hadc);
 176              		.loc 1 238 0
 177 00da 0023     		movs	r3, #0
 178 00dc 84F82430 		strb	r3, [r4, #36]
 239:Drivers/STM32F1xx_HAL_Driver/Src/stm32f1xx_hal_adc_ex.c ****   
 240:Drivers/STM32F1xx_HAL_Driver/Src/stm32f1xx_hal_adc_ex.c ****   /* Return function status */
 241:Drivers/STM32F1xx_HAL_Driver/Src/stm32f1xx_hal_adc_ex.c ****   return tmp_hal_status;
 179              		.loc 1 241 0
 180 00e0 2846     		mov	r0, r5
 181 00e2 00E0     		b	.L2
 182              	.LVL15:
 183              	.L10:
 154:Drivers/STM32F1xx_HAL_Driver/Src/stm32f1xx_hal_adc_ex.c ****     
 184              		.loc 1 154 0
 185 00e4 0220     		movs	r0, #2
 186              	.LVL16:
 187              	.L2:
 242:Drivers/STM32F1xx_HAL_Driver/Src/stm32f1xx_hal_adc_ex.c **** }
 188              		.loc 1 242 0
 189 00e6 02B0     		add	sp, sp, #8
 190              	.LCFI2:
 191              		.cfi_def_cfa_offset 16
 192              		@ sp needed
 193 00e8 70BD     		pop	{r4, r5, r6, pc}
 194              	.L13:
 195 00ea 00BF     		.align	2
 196              	.L12:
 197 00ec 00000000 		.word	SystemCoreClock
 198              		.cfi_endproc
 199              	.LFE64:
 201              		.section	.text.HAL_ADCEx_InjectedStart,"ax",%progbits
 202              		.align	2
 203              		.global	HAL_ADCEx_InjectedStart
 204              		.thumb
 205              		.thumb_func
 207              	HAL_ADCEx_InjectedStart:
 208              	.LFB65:
 243:Drivers/STM32F1xx_HAL_Driver/Src/stm32f1xx_hal_adc_ex.c **** 
 244:Drivers/STM32F1xx_HAL_Driver/Src/stm32f1xx_hal_adc_ex.c **** /**
 245:Drivers/STM32F1xx_HAL_Driver/Src/stm32f1xx_hal_adc_ex.c ****   * @brief  Enables ADC, starts conversion of injected group.
 246:Drivers/STM32F1xx_HAL_Driver/Src/stm32f1xx_hal_adc_ex.c ****   *         Interruptions enabled in this function: None.
ARM GAS  C:\Users\Areg\AppData\Local\Temp\cc1Gg1eQ.s 			page 9


 247:Drivers/STM32F1xx_HAL_Driver/Src/stm32f1xx_hal_adc_ex.c ****   * @param  hadc: ADC handle
 248:Drivers/STM32F1xx_HAL_Driver/Src/stm32f1xx_hal_adc_ex.c ****   * @retval HAL status
 249:Drivers/STM32F1xx_HAL_Driver/Src/stm32f1xx_hal_adc_ex.c ****   */
 250:Drivers/STM32F1xx_HAL_Driver/Src/stm32f1xx_hal_adc_ex.c **** HAL_StatusTypeDef HAL_ADCEx_InjectedStart(ADC_HandleTypeDef* hadc)
 251:Drivers/STM32F1xx_HAL_Driver/Src/stm32f1xx_hal_adc_ex.c **** {
 209              		.loc 1 251 0
 210              		.cfi_startproc
 211              		@ args = 0, pretend = 0, frame = 0
 212              		@ frame_needed = 0, uses_anonymous_args = 0
 213              	.LVL17:
 252:Drivers/STM32F1xx_HAL_Driver/Src/stm32f1xx_hal_adc_ex.c ****   HAL_StatusTypeDef tmp_hal_status = HAL_OK;
 253:Drivers/STM32F1xx_HAL_Driver/Src/stm32f1xx_hal_adc_ex.c ****   
 254:Drivers/STM32F1xx_HAL_Driver/Src/stm32f1xx_hal_adc_ex.c ****   /* Check the parameters */
 255:Drivers/STM32F1xx_HAL_Driver/Src/stm32f1xx_hal_adc_ex.c ****   assert_param(IS_ADC_ALL_INSTANCE(hadc->Instance));
 256:Drivers/STM32F1xx_HAL_Driver/Src/stm32f1xx_hal_adc_ex.c ****   
 257:Drivers/STM32F1xx_HAL_Driver/Src/stm32f1xx_hal_adc_ex.c ****   /* Process locked */
 258:Drivers/STM32F1xx_HAL_Driver/Src/stm32f1xx_hal_adc_ex.c ****   __HAL_LOCK(hadc);
 214              		.loc 1 258 0
 215 0000 90F82430 		ldrb	r3, [r0, #36]	@ zero_extendqisi2
 216 0004 012B     		cmp	r3, #1
 217 0006 54D0     		beq	.L23
 251:Drivers/STM32F1xx_HAL_Driver/Src/stm32f1xx_hal_adc_ex.c ****   HAL_StatusTypeDef tmp_hal_status = HAL_OK;
 218              		.loc 1 251 0 discriminator 2
 219 0008 10B5     		push	{r4, lr}
 220              	.LCFI3:
 221              		.cfi_def_cfa_offset 8
 222              		.cfi_offset 4, -8
 223              		.cfi_offset 14, -4
 224 000a 0446     		mov	r4, r0
 225              		.loc 1 258 0 discriminator 2
 226 000c 0123     		movs	r3, #1
 227 000e 80F82430 		strb	r3, [r0, #36]
 259:Drivers/STM32F1xx_HAL_Driver/Src/stm32f1xx_hal_adc_ex.c ****     
 260:Drivers/STM32F1xx_HAL_Driver/Src/stm32f1xx_hal_adc_ex.c ****   /* Enable the ADC peripheral */
 261:Drivers/STM32F1xx_HAL_Driver/Src/stm32f1xx_hal_adc_ex.c ****   tmp_hal_status = ADC_Enable(hadc);
 228              		.loc 1 261 0 discriminator 2
 229 0012 FFF7FEFF 		bl	ADC_Enable
 230              	.LVL18:
 262:Drivers/STM32F1xx_HAL_Driver/Src/stm32f1xx_hal_adc_ex.c ****   
 263:Drivers/STM32F1xx_HAL_Driver/Src/stm32f1xx_hal_adc_ex.c ****   /* Start conversion if ADC is effectively enabled */
 264:Drivers/STM32F1xx_HAL_Driver/Src/stm32f1xx_hal_adc_ex.c ****   if (tmp_hal_status == HAL_OK)
 231              		.loc 1 264 0 discriminator 2
 232 0016 0346     		mov	r3, r0
 233 0018 0028     		cmp	r0, #0
 234 001a 46D1     		bne	.L16
 265:Drivers/STM32F1xx_HAL_Driver/Src/stm32f1xx_hal_adc_ex.c ****   {
 266:Drivers/STM32F1xx_HAL_Driver/Src/stm32f1xx_hal_adc_ex.c ****     /* Set ADC state                                                          */
 267:Drivers/STM32F1xx_HAL_Driver/Src/stm32f1xx_hal_adc_ex.c ****     /* - Clear state bitfield related to injected group conversion results    */
 268:Drivers/STM32F1xx_HAL_Driver/Src/stm32f1xx_hal_adc_ex.c ****     /* - Set state bitfield related to injected operation                     */
 269:Drivers/STM32F1xx_HAL_Driver/Src/stm32f1xx_hal_adc_ex.c ****     ADC_STATE_CLR_SET(hadc->State,
 235              		.loc 1 269 0
 236 001c A26A     		ldr	r2, [r4, #40]
 237 001e 22F44052 		bic	r2, r2, #12288
 238 0022 22F00102 		bic	r2, r2, #1
 239 0026 42F48052 		orr	r2, r2, #4096
 240 002a A262     		str	r2, [r4, #40]
 270:Drivers/STM32F1xx_HAL_Driver/Src/stm32f1xx_hal_adc_ex.c ****                       HAL_ADC_STATE_READY | HAL_ADC_STATE_INJ_EOC,
ARM GAS  C:\Users\Areg\AppData\Local\Temp\cc1Gg1eQ.s 			page 10


 271:Drivers/STM32F1xx_HAL_Driver/Src/stm32f1xx_hal_adc_ex.c ****                       HAL_ADC_STATE_INJ_BUSY);
 272:Drivers/STM32F1xx_HAL_Driver/Src/stm32f1xx_hal_adc_ex.c ****     
 273:Drivers/STM32F1xx_HAL_Driver/Src/stm32f1xx_hal_adc_ex.c ****     /* Case of independent mode or multimode (for devices with several ADCs): */
 274:Drivers/STM32F1xx_HAL_Driver/Src/stm32f1xx_hal_adc_ex.c ****     /* Set multimode state.                                                   */
 275:Drivers/STM32F1xx_HAL_Driver/Src/stm32f1xx_hal_adc_ex.c ****     if (ADC_NONMULTIMODE_OR_MULTIMODEMASTER(hadc))
 241              		.loc 1 275 0
 242 002c 2168     		ldr	r1, [r4]
 243 002e 234A     		ldr	r2, .L26
 244 0030 9142     		cmp	r1, r2
 245 0032 05D1     		bne	.L17
 246              		.loc 1 275 0 is_stmt 0 discriminator 1
 247 0034 A2F58062 		sub	r2, r2, #1024
 248 0038 5268     		ldr	r2, [r2, #4]
 249 003a 12F4702F 		tst	r2, #983040
 250 003e 04D1     		bne	.L18
 251              	.L17:
 276:Drivers/STM32F1xx_HAL_Driver/Src/stm32f1xx_hal_adc_ex.c ****     {
 277:Drivers/STM32F1xx_HAL_Driver/Src/stm32f1xx_hal_adc_ex.c ****       CLEAR_BIT(hadc->State, HAL_ADC_STATE_MULTIMODE_SLAVE);
 252              		.loc 1 277 0 is_stmt 1
 253 0040 A26A     		ldr	r2, [r4, #40]
 254 0042 22F48012 		bic	r2, r2, #1048576
 255 0046 A262     		str	r2, [r4, #40]
 256 0048 03E0     		b	.L19
 257              	.L18:
 278:Drivers/STM32F1xx_HAL_Driver/Src/stm32f1xx_hal_adc_ex.c ****     }
 279:Drivers/STM32F1xx_HAL_Driver/Src/stm32f1xx_hal_adc_ex.c ****     else
 280:Drivers/STM32F1xx_HAL_Driver/Src/stm32f1xx_hal_adc_ex.c ****     {
 281:Drivers/STM32F1xx_HAL_Driver/Src/stm32f1xx_hal_adc_ex.c ****       SET_BIT(hadc->State, HAL_ADC_STATE_MULTIMODE_SLAVE);
 258              		.loc 1 281 0
 259 004a A26A     		ldr	r2, [r4, #40]
 260 004c 42F48012 		orr	r2, r2, #1048576
 261 0050 A262     		str	r2, [r4, #40]
 262              	.L19:
 282:Drivers/STM32F1xx_HAL_Driver/Src/stm32f1xx_hal_adc_ex.c ****     }
 283:Drivers/STM32F1xx_HAL_Driver/Src/stm32f1xx_hal_adc_ex.c ****     
 284:Drivers/STM32F1xx_HAL_Driver/Src/stm32f1xx_hal_adc_ex.c ****     /* Check if a regular conversion is ongoing */
 285:Drivers/STM32F1xx_HAL_Driver/Src/stm32f1xx_hal_adc_ex.c ****     /* Note: On this device, there is no ADC error code fields related to     */
 286:Drivers/STM32F1xx_HAL_Driver/Src/stm32f1xx_hal_adc_ex.c ****     /*       conversions on group injected only. In case of conversion on     */
 287:Drivers/STM32F1xx_HAL_Driver/Src/stm32f1xx_hal_adc_ex.c ****     /*       going on group regular, no error code is reset.                  */
 288:Drivers/STM32F1xx_HAL_Driver/Src/stm32f1xx_hal_adc_ex.c ****     if (HAL_IS_BIT_CLR(hadc->State, HAL_ADC_STATE_REG_BUSY))
 263              		.loc 1 288 0
 264 0052 A26A     		ldr	r2, [r4, #40]
 265 0054 12F4807F 		tst	r2, #256
 266 0058 01D1     		bne	.L20
 289:Drivers/STM32F1xx_HAL_Driver/Src/stm32f1xx_hal_adc_ex.c ****     {
 290:Drivers/STM32F1xx_HAL_Driver/Src/stm32f1xx_hal_adc_ex.c ****       /* Reset ADC all error code fields */
 291:Drivers/STM32F1xx_HAL_Driver/Src/stm32f1xx_hal_adc_ex.c ****       ADC_CLEAR_ERRORCODE(hadc);
 267              		.loc 1 291 0
 268 005a 0022     		movs	r2, #0
 269 005c E262     		str	r2, [r4, #44]
 270              	.L20:
 292:Drivers/STM32F1xx_HAL_Driver/Src/stm32f1xx_hal_adc_ex.c ****     }
 293:Drivers/STM32F1xx_HAL_Driver/Src/stm32f1xx_hal_adc_ex.c ****     
 294:Drivers/STM32F1xx_HAL_Driver/Src/stm32f1xx_hal_adc_ex.c ****     /* Process unlocked */
 295:Drivers/STM32F1xx_HAL_Driver/Src/stm32f1xx_hal_adc_ex.c ****     /* Unlock before starting ADC conversions: in case of potential           */
 296:Drivers/STM32F1xx_HAL_Driver/Src/stm32f1xx_hal_adc_ex.c ****     /* interruption, to let the process to ADC IRQ Handler.                   */
 297:Drivers/STM32F1xx_HAL_Driver/Src/stm32f1xx_hal_adc_ex.c ****     __HAL_UNLOCK(hadc);
ARM GAS  C:\Users\Areg\AppData\Local\Temp\cc1Gg1eQ.s 			page 11


 271              		.loc 1 297 0
 272 005e 0022     		movs	r2, #0
 273 0060 84F82420 		strb	r2, [r4, #36]
 298:Drivers/STM32F1xx_HAL_Driver/Src/stm32f1xx_hal_adc_ex.c ****     
 299:Drivers/STM32F1xx_HAL_Driver/Src/stm32f1xx_hal_adc_ex.c ****     /* Clear injected group conversion flag */
 300:Drivers/STM32F1xx_HAL_Driver/Src/stm32f1xx_hal_adc_ex.c ****     /* (To ensure of no unknown state from potential previous ADC operations) */
 301:Drivers/STM32F1xx_HAL_Driver/Src/stm32f1xx_hal_adc_ex.c ****     __HAL_ADC_CLEAR_FLAG(hadc, ADC_FLAG_JEOC);
 274              		.loc 1 301 0
 275 0064 6FF00402 		mvn	r2, #4
 276 0068 0A60     		str	r2, [r1]
 302:Drivers/STM32F1xx_HAL_Driver/Src/stm32f1xx_hal_adc_ex.c ****         
 303:Drivers/STM32F1xx_HAL_Driver/Src/stm32f1xx_hal_adc_ex.c ****     /* Enable conversion of injected group.                                   */
 304:Drivers/STM32F1xx_HAL_Driver/Src/stm32f1xx_hal_adc_ex.c ****     /* If software start has been selected, conversion starts immediately.    */
 305:Drivers/STM32F1xx_HAL_Driver/Src/stm32f1xx_hal_adc_ex.c ****     /* If external trigger has been selected, conversion will start at next   */
 306:Drivers/STM32F1xx_HAL_Driver/Src/stm32f1xx_hal_adc_ex.c ****     /* trigger event.                                                         */
 307:Drivers/STM32F1xx_HAL_Driver/Src/stm32f1xx_hal_adc_ex.c ****     /* If automatic injected conversion is enabled, conversion will start     */
 308:Drivers/STM32F1xx_HAL_Driver/Src/stm32f1xx_hal_adc_ex.c ****     /* after next regular group conversion.                                   */
 309:Drivers/STM32F1xx_HAL_Driver/Src/stm32f1xx_hal_adc_ex.c ****     /* Case of multimode enabled (for devices with several ADCs): if ADC is   */
 310:Drivers/STM32F1xx_HAL_Driver/Src/stm32f1xx_hal_adc_ex.c ****     /* slave, ADC is enabled only (conversion is not started). If ADC is      */
 311:Drivers/STM32F1xx_HAL_Driver/Src/stm32f1xx_hal_adc_ex.c ****     /* master, ADC is enabled and conversion is started.                      */
 312:Drivers/STM32F1xx_HAL_Driver/Src/stm32f1xx_hal_adc_ex.c ****     if (HAL_IS_BIT_CLR(hadc->Instance->CR1, ADC_CR1_JAUTO))
 277              		.loc 1 312 0
 278 006a 2268     		ldr	r2, [r4]
 279 006c 5168     		ldr	r1, [r2, #4]
 280 006e 11F4806F 		tst	r1, #1024
 281 0072 20D1     		bne	.L24
 313:Drivers/STM32F1xx_HAL_Driver/Src/stm32f1xx_hal_adc_ex.c ****     {
 314:Drivers/STM32F1xx_HAL_Driver/Src/stm32f1xx_hal_adc_ex.c ****       if (ADC_IS_SOFTWARE_START_INJECTED(hadc)     &&
 282              		.loc 1 314 0
 283 0074 9168     		ldr	r1, [r2, #8]
 284 0076 01F4E041 		and	r1, r1, #28672
 285 007a B1F5E04F 		cmp	r1, #28672
 286 007e 0ED1     		bne	.L21
 287              		.loc 1 314 0 is_stmt 0 discriminator 1
 288 0080 0E49     		ldr	r1, .L26
 289 0082 8A42     		cmp	r2, r1
 290 0084 05D1     		bne	.L22
 315:Drivers/STM32F1xx_HAL_Driver/Src/stm32f1xx_hal_adc_ex.c ****           ADC_NONMULTIMODE_OR_MULTIMODEMASTER(hadc)  )
 291              		.loc 1 315 0 is_stmt 1 discriminator 2
 292 0086 A1F58061 		sub	r1, r1, #1024
 293 008a 4968     		ldr	r1, [r1, #4]
 314:Drivers/STM32F1xx_HAL_Driver/Src/stm32f1xx_hal_adc_ex.c ****           ADC_NONMULTIMODE_OR_MULTIMODEMASTER(hadc)  )
 294              		.loc 1 314 0 discriminator 2
 295 008c 11F4702F 		tst	r1, #983040
 296 0090 05D1     		bne	.L21
 297              	.L22:
 316:Drivers/STM32F1xx_HAL_Driver/Src/stm32f1xx_hal_adc_ex.c ****       {
 317:Drivers/STM32F1xx_HAL_Driver/Src/stm32f1xx_hal_adc_ex.c ****         /* Start ADC conversion on injected group with SW start */
 318:Drivers/STM32F1xx_HAL_Driver/Src/stm32f1xx_hal_adc_ex.c ****         SET_BIT(hadc->Instance->CR2, (ADC_CR2_JSWSTART | ADC_CR2_JEXTTRIG));
 298              		.loc 1 318 0
 299 0092 9168     		ldr	r1, [r2, #8]
 300 0094 41F40211 		orr	r1, r1, #2129920
 301 0098 9160     		str	r1, [r2, #8]
 319:Drivers/STM32F1xx_HAL_Driver/Src/stm32f1xx_hal_adc_ex.c ****       }
 320:Drivers/STM32F1xx_HAL_Driver/Src/stm32f1xx_hal_adc_ex.c ****       else
 321:Drivers/STM32F1xx_HAL_Driver/Src/stm32f1xx_hal_adc_ex.c ****       {
 322:Drivers/STM32F1xx_HAL_Driver/Src/stm32f1xx_hal_adc_ex.c ****         /* Start ADC conversion on injected group with external trigger */
ARM GAS  C:\Users\Areg\AppData\Local\Temp\cc1Gg1eQ.s 			page 12


 323:Drivers/STM32F1xx_HAL_Driver/Src/stm32f1xx_hal_adc_ex.c ****         SET_BIT(hadc->Instance->CR2, ADC_CR2_JEXTTRIG);
 324:Drivers/STM32F1xx_HAL_Driver/Src/stm32f1xx_hal_adc_ex.c ****       }
 325:Drivers/STM32F1xx_HAL_Driver/Src/stm32f1xx_hal_adc_ex.c ****     }
 326:Drivers/STM32F1xx_HAL_Driver/Src/stm32f1xx_hal_adc_ex.c ****   }
 327:Drivers/STM32F1xx_HAL_Driver/Src/stm32f1xx_hal_adc_ex.c ****   else
 328:Drivers/STM32F1xx_HAL_Driver/Src/stm32f1xx_hal_adc_ex.c ****   {
 329:Drivers/STM32F1xx_HAL_Driver/Src/stm32f1xx_hal_adc_ex.c ****     /* Process unlocked */
 330:Drivers/STM32F1xx_HAL_Driver/Src/stm32f1xx_hal_adc_ex.c ****     __HAL_UNLOCK(hadc);
 331:Drivers/STM32F1xx_HAL_Driver/Src/stm32f1xx_hal_adc_ex.c ****   }
 332:Drivers/STM32F1xx_HAL_Driver/Src/stm32f1xx_hal_adc_ex.c ****   
 333:Drivers/STM32F1xx_HAL_Driver/Src/stm32f1xx_hal_adc_ex.c ****   /* Return function status */
 334:Drivers/STM32F1xx_HAL_Driver/Src/stm32f1xx_hal_adc_ex.c ****   return tmp_hal_status;
 302              		.loc 1 334 0
 303 009a 1846     		mov	r0, r3
 304              	.LVL19:
 318:Drivers/STM32F1xx_HAL_Driver/Src/stm32f1xx_hal_adc_ex.c ****       }
 305              		.loc 1 318 0
 306 009c 10BD     		pop	{r4, pc}
 307              	.LVL20:
 308              	.L21:
 323:Drivers/STM32F1xx_HAL_Driver/Src/stm32f1xx_hal_adc_ex.c ****       }
 309              		.loc 1 323 0
 310 009e 9168     		ldr	r1, [r2, #8]
 311 00a0 41F40041 		orr	r1, r1, #32768
 312 00a4 9160     		str	r1, [r2, #8]
 313              		.loc 1 334 0
 314 00a6 1846     		mov	r0, r3
 315              	.LVL21:
 316 00a8 10BD     		pop	{r4, pc}
 317              	.LVL22:
 318              	.L16:
 330:Drivers/STM32F1xx_HAL_Driver/Src/stm32f1xx_hal_adc_ex.c ****   }
 319              		.loc 1 330 0
 320 00aa 0022     		movs	r2, #0
 321 00ac 84F82420 		strb	r2, [r4, #36]
 322 00b0 10BD     		pop	{r4, pc}
 323              	.LVL23:
 324              	.L23:
 325              	.LCFI4:
 326              		.cfi_def_cfa_offset 0
 327              		.cfi_restore 4
 328              		.cfi_restore 14
 258:Drivers/STM32F1xx_HAL_Driver/Src/stm32f1xx_hal_adc_ex.c ****     
 329              		.loc 1 258 0
 330 00b2 0220     		movs	r0, #2
 331              	.LVL24:
 335:Drivers/STM32F1xx_HAL_Driver/Src/stm32f1xx_hal_adc_ex.c **** }
 332              		.loc 1 335 0
 333 00b4 7047     		bx	lr
 334              	.LVL25:
 335              	.L24:
 336              	.LCFI5:
 337              		.cfi_def_cfa_offset 8
 338              		.cfi_offset 4, -8
 339              		.cfi_offset 14, -4
 334:Drivers/STM32F1xx_HAL_Driver/Src/stm32f1xx_hal_adc_ex.c **** }
 340              		.loc 1 334 0
ARM GAS  C:\Users\Areg\AppData\Local\Temp\cc1Gg1eQ.s 			page 13


 341 00b6 1846     		mov	r0, r3
 342              	.LVL26:
 343              		.loc 1 335 0
 344 00b8 10BD     		pop	{r4, pc}
 345              	.LVL27:
 346              	.L27:
 347 00ba 00BF     		.align	2
 348              	.L26:
 349 00bc 00280140 		.word	1073817600
 350              		.cfi_endproc
 351              	.LFE65:
 353              		.section	.text.HAL_ADCEx_InjectedStop,"ax",%progbits
 354              		.align	2
 355              		.global	HAL_ADCEx_InjectedStop
 356              		.thumb
 357              		.thumb_func
 359              	HAL_ADCEx_InjectedStop:
 360              	.LFB66:
 336:Drivers/STM32F1xx_HAL_Driver/Src/stm32f1xx_hal_adc_ex.c **** 
 337:Drivers/STM32F1xx_HAL_Driver/Src/stm32f1xx_hal_adc_ex.c **** /**
 338:Drivers/STM32F1xx_HAL_Driver/Src/stm32f1xx_hal_adc_ex.c ****   * @brief  Stop conversion of injected channels. Disable ADC peripheral if
 339:Drivers/STM32F1xx_HAL_Driver/Src/stm32f1xx_hal_adc_ex.c ****   *         no regular conversion is on going.
 340:Drivers/STM32F1xx_HAL_Driver/Src/stm32f1xx_hal_adc_ex.c ****   * @note   If ADC must be disabled and if conversion is on going on 
 341:Drivers/STM32F1xx_HAL_Driver/Src/stm32f1xx_hal_adc_ex.c ****   *         regular group, function HAL_ADC_Stop must be used to stop both
 342:Drivers/STM32F1xx_HAL_Driver/Src/stm32f1xx_hal_adc_ex.c ****   *         injected and regular groups, and disable the ADC.
 343:Drivers/STM32F1xx_HAL_Driver/Src/stm32f1xx_hal_adc_ex.c ****   * @note   If injected group mode auto-injection is enabled,
 344:Drivers/STM32F1xx_HAL_Driver/Src/stm32f1xx_hal_adc_ex.c ****   *         function HAL_ADC_Stop must be used.
 345:Drivers/STM32F1xx_HAL_Driver/Src/stm32f1xx_hal_adc_ex.c ****   * @note   In case of auto-injection mode, HAL_ADC_Stop must be used.
 346:Drivers/STM32F1xx_HAL_Driver/Src/stm32f1xx_hal_adc_ex.c ****   * @param  hadc: ADC handle
 347:Drivers/STM32F1xx_HAL_Driver/Src/stm32f1xx_hal_adc_ex.c ****   * @retval None
 348:Drivers/STM32F1xx_HAL_Driver/Src/stm32f1xx_hal_adc_ex.c ****   */
 349:Drivers/STM32F1xx_HAL_Driver/Src/stm32f1xx_hal_adc_ex.c **** HAL_StatusTypeDef HAL_ADCEx_InjectedStop(ADC_HandleTypeDef* hadc)
 350:Drivers/STM32F1xx_HAL_Driver/Src/stm32f1xx_hal_adc_ex.c **** {
 361              		.loc 1 350 0
 362              		.cfi_startproc
 363              		@ args = 0, pretend = 0, frame = 0
 364              		@ frame_needed = 0, uses_anonymous_args = 0
 365              	.LVL28:
 351:Drivers/STM32F1xx_HAL_Driver/Src/stm32f1xx_hal_adc_ex.c ****   HAL_StatusTypeDef tmp_hal_status = HAL_OK;
 352:Drivers/STM32F1xx_HAL_Driver/Src/stm32f1xx_hal_adc_ex.c ****   
 353:Drivers/STM32F1xx_HAL_Driver/Src/stm32f1xx_hal_adc_ex.c ****   /* Check the parameters */
 354:Drivers/STM32F1xx_HAL_Driver/Src/stm32f1xx_hal_adc_ex.c ****   assert_param(IS_ADC_ALL_INSTANCE(hadc->Instance));
 355:Drivers/STM32F1xx_HAL_Driver/Src/stm32f1xx_hal_adc_ex.c **** 
 356:Drivers/STM32F1xx_HAL_Driver/Src/stm32f1xx_hal_adc_ex.c ****   /* Process locked */
 357:Drivers/STM32F1xx_HAL_Driver/Src/stm32f1xx_hal_adc_ex.c ****   __HAL_LOCK(hadc);
 366              		.loc 1 357 0
 367 0000 90F82430 		ldrb	r3, [r0, #36]	@ zero_extendqisi2
 368 0004 012B     		cmp	r3, #1
 369 0006 24D0     		beq	.L32
 350:Drivers/STM32F1xx_HAL_Driver/Src/stm32f1xx_hal_adc_ex.c ****   HAL_StatusTypeDef tmp_hal_status = HAL_OK;
 370              		.loc 1 350 0 discriminator 2
 371 0008 10B5     		push	{r4, lr}
 372              	.LCFI6:
 373              		.cfi_def_cfa_offset 8
 374              		.cfi_offset 4, -8
 375              		.cfi_offset 14, -4
 376 000a 0446     		mov	r4, r0
ARM GAS  C:\Users\Areg\AppData\Local\Temp\cc1Gg1eQ.s 			page 14


 377              		.loc 1 357 0 discriminator 2
 378 000c 0123     		movs	r3, #1
 379 000e 80F82430 		strb	r3, [r0, #36]
 358:Drivers/STM32F1xx_HAL_Driver/Src/stm32f1xx_hal_adc_ex.c ****     
 359:Drivers/STM32F1xx_HAL_Driver/Src/stm32f1xx_hal_adc_ex.c ****   /* Stop potential conversion and disable ADC peripheral                     */
 360:Drivers/STM32F1xx_HAL_Driver/Src/stm32f1xx_hal_adc_ex.c ****   /* Conditioned to:                                                          */
 361:Drivers/STM32F1xx_HAL_Driver/Src/stm32f1xx_hal_adc_ex.c ****   /* - No conversion on the other group (regular group) is intended to        */
 362:Drivers/STM32F1xx_HAL_Driver/Src/stm32f1xx_hal_adc_ex.c ****   /*   continue (injected and regular groups stop conversion and ADC disable  */
 363:Drivers/STM32F1xx_HAL_Driver/Src/stm32f1xx_hal_adc_ex.c ****   /*   are common)                                                            */
 364:Drivers/STM32F1xx_HAL_Driver/Src/stm32f1xx_hal_adc_ex.c ****   /* - In case of auto-injection mode, HAL_ADC_Stop must be used.             */
 365:Drivers/STM32F1xx_HAL_Driver/Src/stm32f1xx_hal_adc_ex.c ****   if(((hadc->State & HAL_ADC_STATE_REG_BUSY) == RESET)  &&
 380              		.loc 1 365 0 discriminator 2
 381 0012 836A     		ldr	r3, [r0, #40]
 382 0014 13F4807F 		tst	r3, #256
 383 0018 11D1     		bne	.L30
 366:Drivers/STM32F1xx_HAL_Driver/Src/stm32f1xx_hal_adc_ex.c ****      HAL_IS_BIT_CLR(hadc->Instance->CR1, ADC_CR1_JAUTO)   )
 384              		.loc 1 366 0 discriminator 1
 385 001a 0368     		ldr	r3, [r0]
 386 001c 5B68     		ldr	r3, [r3, #4]
 365:Drivers/STM32F1xx_HAL_Driver/Src/stm32f1xx_hal_adc_ex.c ****      HAL_IS_BIT_CLR(hadc->Instance->CR1, ADC_CR1_JAUTO)   )
 387              		.loc 1 365 0 discriminator 1
 388 001e 13F4806F 		tst	r3, #1024
 389 0022 0CD1     		bne	.L30
 367:Drivers/STM32F1xx_HAL_Driver/Src/stm32f1xx_hal_adc_ex.c ****   {
 368:Drivers/STM32F1xx_HAL_Driver/Src/stm32f1xx_hal_adc_ex.c ****     /* Stop potential conversion on going, on regular and injected groups */
 369:Drivers/STM32F1xx_HAL_Driver/Src/stm32f1xx_hal_adc_ex.c ****     /* Disable ADC peripheral */
 370:Drivers/STM32F1xx_HAL_Driver/Src/stm32f1xx_hal_adc_ex.c ****     tmp_hal_status = ADC_ConversionStop_Disable(hadc);
 390              		.loc 1 370 0
 391 0024 FFF7FEFF 		bl	ADC_ConversionStop_Disable
 392              	.LVL29:
 371:Drivers/STM32F1xx_HAL_Driver/Src/stm32f1xx_hal_adc_ex.c ****     
 372:Drivers/STM32F1xx_HAL_Driver/Src/stm32f1xx_hal_adc_ex.c ****     /* Check if ADC is effectively disabled */
 373:Drivers/STM32F1xx_HAL_Driver/Src/stm32f1xx_hal_adc_ex.c ****     if (tmp_hal_status == HAL_OK)
 393              		.loc 1 373 0
 394 0028 0346     		mov	r3, r0
 395 002a 68B9     		cbnz	r0, .L31
 374:Drivers/STM32F1xx_HAL_Driver/Src/stm32f1xx_hal_adc_ex.c ****     {
 375:Drivers/STM32F1xx_HAL_Driver/Src/stm32f1xx_hal_adc_ex.c ****       /* Set ADC state */
 376:Drivers/STM32F1xx_HAL_Driver/Src/stm32f1xx_hal_adc_ex.c ****       ADC_STATE_CLR_SET(hadc->State,
 396              		.loc 1 376 0
 397 002c A26A     		ldr	r2, [r4, #40]
 398 002e 22F48852 		bic	r2, r2, #4352
 399 0032 22F00102 		bic	r2, r2, #1
 400 0036 42F00102 		orr	r2, r2, #1
 401 003a A262     		str	r2, [r4, #40]
 402 003c 04E0     		b	.L31
 403              	.LVL30:
 404              	.L30:
 377:Drivers/STM32F1xx_HAL_Driver/Src/stm32f1xx_hal_adc_ex.c ****                         HAL_ADC_STATE_REG_BUSY | HAL_ADC_STATE_INJ_BUSY,
 378:Drivers/STM32F1xx_HAL_Driver/Src/stm32f1xx_hal_adc_ex.c ****                         HAL_ADC_STATE_READY);
 379:Drivers/STM32F1xx_HAL_Driver/Src/stm32f1xx_hal_adc_ex.c ****     }
 380:Drivers/STM32F1xx_HAL_Driver/Src/stm32f1xx_hal_adc_ex.c ****   }
 381:Drivers/STM32F1xx_HAL_Driver/Src/stm32f1xx_hal_adc_ex.c ****   else
 382:Drivers/STM32F1xx_HAL_Driver/Src/stm32f1xx_hal_adc_ex.c ****   {
 383:Drivers/STM32F1xx_HAL_Driver/Src/stm32f1xx_hal_adc_ex.c ****     /* Update ADC state machine to error */
 384:Drivers/STM32F1xx_HAL_Driver/Src/stm32f1xx_hal_adc_ex.c ****     SET_BIT(hadc->State, HAL_ADC_STATE_ERROR_CONFIG);
 405              		.loc 1 384 0
ARM GAS  C:\Users\Areg\AppData\Local\Temp\cc1Gg1eQ.s 			page 15


 406 003e A36A     		ldr	r3, [r4, #40]
 407 0040 43F02003 		orr	r3, r3, #32
 408 0044 A362     		str	r3, [r4, #40]
 409              	.LVL31:
 385:Drivers/STM32F1xx_HAL_Driver/Src/stm32f1xx_hal_adc_ex.c ****       
 386:Drivers/STM32F1xx_HAL_Driver/Src/stm32f1xx_hal_adc_ex.c ****     tmp_hal_status = HAL_ERROR;
 410              		.loc 1 386 0
 411 0046 0123     		movs	r3, #1
 412              	.LVL32:
 413              	.L31:
 387:Drivers/STM32F1xx_HAL_Driver/Src/stm32f1xx_hal_adc_ex.c ****   }
 388:Drivers/STM32F1xx_HAL_Driver/Src/stm32f1xx_hal_adc_ex.c ****   
 389:Drivers/STM32F1xx_HAL_Driver/Src/stm32f1xx_hal_adc_ex.c ****   /* Process unlocked */
 390:Drivers/STM32F1xx_HAL_Driver/Src/stm32f1xx_hal_adc_ex.c ****   __HAL_UNLOCK(hadc);
 414              		.loc 1 390 0
 415 0048 0022     		movs	r2, #0
 416 004a 84F82420 		strb	r2, [r4, #36]
 391:Drivers/STM32F1xx_HAL_Driver/Src/stm32f1xx_hal_adc_ex.c ****   
 392:Drivers/STM32F1xx_HAL_Driver/Src/stm32f1xx_hal_adc_ex.c ****   /* Return function status */
 393:Drivers/STM32F1xx_HAL_Driver/Src/stm32f1xx_hal_adc_ex.c ****   return tmp_hal_status;
 417              		.loc 1 393 0
 418 004e 1846     		mov	r0, r3
 419 0050 10BD     		pop	{r4, pc}
 420              	.LVL33:
 421              	.L32:
 422              	.LCFI7:
 423              		.cfi_def_cfa_offset 0
 424              		.cfi_restore 4
 425              		.cfi_restore 14
 357:Drivers/STM32F1xx_HAL_Driver/Src/stm32f1xx_hal_adc_ex.c ****     
 426              		.loc 1 357 0
 427 0052 0220     		movs	r0, #2
 428              	.LVL34:
 429 0054 7047     		bx	lr
 430              		.cfi_endproc
 431              	.LFE66:
 433 0056 00BF     		.section	.text.HAL_ADCEx_InjectedPollForConversion,"ax",%progbits
 434              		.align	2
 435              		.global	HAL_ADCEx_InjectedPollForConversion
 436              		.thumb
 437              		.thumb_func
 439              	HAL_ADCEx_InjectedPollForConversion:
 440              	.LFB67:
 394:Drivers/STM32F1xx_HAL_Driver/Src/stm32f1xx_hal_adc_ex.c **** }
 395:Drivers/STM32F1xx_HAL_Driver/Src/stm32f1xx_hal_adc_ex.c **** 
 396:Drivers/STM32F1xx_HAL_Driver/Src/stm32f1xx_hal_adc_ex.c **** /**
 397:Drivers/STM32F1xx_HAL_Driver/Src/stm32f1xx_hal_adc_ex.c ****   * @brief  Wait for injected group conversion to be completed.
 398:Drivers/STM32F1xx_HAL_Driver/Src/stm32f1xx_hal_adc_ex.c ****   * @param  hadc: ADC handle
 399:Drivers/STM32F1xx_HAL_Driver/Src/stm32f1xx_hal_adc_ex.c ****   * @param  Timeout: Timeout value in millisecond.
 400:Drivers/STM32F1xx_HAL_Driver/Src/stm32f1xx_hal_adc_ex.c ****   * @retval HAL status
 401:Drivers/STM32F1xx_HAL_Driver/Src/stm32f1xx_hal_adc_ex.c ****   */
 402:Drivers/STM32F1xx_HAL_Driver/Src/stm32f1xx_hal_adc_ex.c **** HAL_StatusTypeDef HAL_ADCEx_InjectedPollForConversion(ADC_HandleTypeDef* hadc, uint32_t Timeout)
 403:Drivers/STM32F1xx_HAL_Driver/Src/stm32f1xx_hal_adc_ex.c **** {
 441              		.loc 1 403 0
 442              		.cfi_startproc
 443              		@ args = 0, pretend = 0, frame = 8
 444              		@ frame_needed = 0, uses_anonymous_args = 0
ARM GAS  C:\Users\Areg\AppData\Local\Temp\cc1Gg1eQ.s 			page 16


 445              	.LVL35:
 446 0000 F0B5     		push	{r4, r5, r6, r7, lr}
 447              	.LCFI8:
 448              		.cfi_def_cfa_offset 20
 449              		.cfi_offset 4, -20
 450              		.cfi_offset 5, -16
 451              		.cfi_offset 6, -12
 452              		.cfi_offset 7, -8
 453              		.cfi_offset 14, -4
 454 0002 83B0     		sub	sp, sp, #12
 455              	.LCFI9:
 456              		.cfi_def_cfa_offset 32
 457 0004 0546     		mov	r5, r0
 458 0006 0C46     		mov	r4, r1
 404:Drivers/STM32F1xx_HAL_Driver/Src/stm32f1xx_hal_adc_ex.c ****   uint32_t tickstart;
 405:Drivers/STM32F1xx_HAL_Driver/Src/stm32f1xx_hal_adc_ex.c **** 
 406:Drivers/STM32F1xx_HAL_Driver/Src/stm32f1xx_hal_adc_ex.c ****   /* Variables for polling in case of scan mode enabled and polling for each  */
 407:Drivers/STM32F1xx_HAL_Driver/Src/stm32f1xx_hal_adc_ex.c ****   /* conversion.                                                              */
 408:Drivers/STM32F1xx_HAL_Driver/Src/stm32f1xx_hal_adc_ex.c ****   __IO uint32_t Conversion_Timeout_CPU_cycles = 0U;
 459              		.loc 1 408 0
 460 0008 0023     		movs	r3, #0
 461 000a 0193     		str	r3, [sp, #4]
 462              	.LVL36:
 409:Drivers/STM32F1xx_HAL_Driver/Src/stm32f1xx_hal_adc_ex.c ****   uint32_t Conversion_Timeout_CPU_cycles_max = 0U;
 410:Drivers/STM32F1xx_HAL_Driver/Src/stm32f1xx_hal_adc_ex.c ****   
 411:Drivers/STM32F1xx_HAL_Driver/Src/stm32f1xx_hal_adc_ex.c ****   /* Check the parameters */
 412:Drivers/STM32F1xx_HAL_Driver/Src/stm32f1xx_hal_adc_ex.c ****   assert_param(IS_ADC_ALL_INSTANCE(hadc->Instance));
 413:Drivers/STM32F1xx_HAL_Driver/Src/stm32f1xx_hal_adc_ex.c **** 
 414:Drivers/STM32F1xx_HAL_Driver/Src/stm32f1xx_hal_adc_ex.c ****   /* Get timeout */
 415:Drivers/STM32F1xx_HAL_Driver/Src/stm32f1xx_hal_adc_ex.c ****   tickstart = HAL_GetTick();  
 463              		.loc 1 415 0
 464 000c FFF7FEFF 		bl	HAL_GetTick
 465              	.LVL37:
 466 0010 0646     		mov	r6, r0
 467              	.LVL38:
 416:Drivers/STM32F1xx_HAL_Driver/Src/stm32f1xx_hal_adc_ex.c ****      
 417:Drivers/STM32F1xx_HAL_Driver/Src/stm32f1xx_hal_adc_ex.c ****   /* Polling for end of conversion: differentiation if single/sequence        */
 418:Drivers/STM32F1xx_HAL_Driver/Src/stm32f1xx_hal_adc_ex.c ****   /* conversion.                                                              */
 419:Drivers/STM32F1xx_HAL_Driver/Src/stm32f1xx_hal_adc_ex.c ****   /* For injected group, flag JEOC is set only at the end of the sequence,    */
 420:Drivers/STM32F1xx_HAL_Driver/Src/stm32f1xx_hal_adc_ex.c ****   /* not for each conversion within the sequence.                             */
 421:Drivers/STM32F1xx_HAL_Driver/Src/stm32f1xx_hal_adc_ex.c ****   /*  - If single conversion for injected group (scan mode disabled or        */
 422:Drivers/STM32F1xx_HAL_Driver/Src/stm32f1xx_hal_adc_ex.c ****   /*    InjectedNbrOfConversion ==1), flag JEOC is used to determine the      */
 423:Drivers/STM32F1xx_HAL_Driver/Src/stm32f1xx_hal_adc_ex.c ****   /*    conversion completion.                                                */
 424:Drivers/STM32F1xx_HAL_Driver/Src/stm32f1xx_hal_adc_ex.c ****   /*  - If sequence conversion for injected group (scan mode enabled and      */
 425:Drivers/STM32F1xx_HAL_Driver/Src/stm32f1xx_hal_adc_ex.c ****   /*    InjectedNbrOfConversion >=2), flag JEOC is set only at the end of the */
 426:Drivers/STM32F1xx_HAL_Driver/Src/stm32f1xx_hal_adc_ex.c ****   /*    sequence.                                                             */
 427:Drivers/STM32F1xx_HAL_Driver/Src/stm32f1xx_hal_adc_ex.c ****   /*    To poll for each conversion, the maximum conversion time is computed  */
 428:Drivers/STM32F1xx_HAL_Driver/Src/stm32f1xx_hal_adc_ex.c ****   /*    from ADC conversion time (selected sampling time + conversion time of */
 429:Drivers/STM32F1xx_HAL_Driver/Src/stm32f1xx_hal_adc_ex.c ****   /*    12.5 ADC clock cycles) and APB2/ADC clock prescalers (depending on    */
 430:Drivers/STM32F1xx_HAL_Driver/Src/stm32f1xx_hal_adc_ex.c ****   /*    settings, conversion time range can be from 28 to 32256 CPU cycles).  */
 431:Drivers/STM32F1xx_HAL_Driver/Src/stm32f1xx_hal_adc_ex.c ****   /*    As flag JEOC is not set after each conversion, no timeout status can  */
 432:Drivers/STM32F1xx_HAL_Driver/Src/stm32f1xx_hal_adc_ex.c ****   /*    be set.                                                               */
 433:Drivers/STM32F1xx_HAL_Driver/Src/stm32f1xx_hal_adc_ex.c ****   if ((hadc->Instance->JSQR & ADC_JSQR_JL) == RESET)
 468              		.loc 1 433 0
 469 0012 2B68     		ldr	r3, [r5]
 470 0014 9B6B     		ldr	r3, [r3, #56]
 471 0016 13F4401F 		tst	r3, #3145728
ARM GAS  C:\Users\Areg\AppData\Local\Temp\cc1Gg1eQ.s 			page 17


 472 001a 12D0     		beq	.L38
 473 001c 17E0     		b	.L60
 474              	.LVL39:
 475              	.L41:
 434:Drivers/STM32F1xx_HAL_Driver/Src/stm32f1xx_hal_adc_ex.c ****   {
 435:Drivers/STM32F1xx_HAL_Driver/Src/stm32f1xx_hal_adc_ex.c ****     /* Wait until End of Conversion flag is raised */
 436:Drivers/STM32F1xx_HAL_Driver/Src/stm32f1xx_hal_adc_ex.c ****     while(HAL_IS_BIT_CLR(hadc->Instance->SR, ADC_FLAG_JEOC))
 437:Drivers/STM32F1xx_HAL_Driver/Src/stm32f1xx_hal_adc_ex.c ****     {
 438:Drivers/STM32F1xx_HAL_Driver/Src/stm32f1xx_hal_adc_ex.c ****       /* Check if timeout is disabled (set to infinite wait) */
 439:Drivers/STM32F1xx_HAL_Driver/Src/stm32f1xx_hal_adc_ex.c ****       if(Timeout != HAL_MAX_DELAY)
 476              		.loc 1 439 0
 477 001e B4F1FF3F 		cmp	r4, #-1
 478 0022 0ED0     		beq	.L38
 440:Drivers/STM32F1xx_HAL_Driver/Src/stm32f1xx_hal_adc_ex.c ****       {
 441:Drivers/STM32F1xx_HAL_Driver/Src/stm32f1xx_hal_adc_ex.c ****         if((Timeout == 0U) || ((HAL_GetTick() - tickstart ) > Timeout))
 479              		.loc 1 441 0
 480 0024 24B1     		cbz	r4, .L39
 481              		.loc 1 441 0 is_stmt 0 discriminator 1
 482 0026 FFF7FEFF 		bl	HAL_GetTick
 483              	.LVL40:
 484 002a 801B     		subs	r0, r0, r6
 485 002c 8442     		cmp	r4, r0
 486 002e 08D2     		bcs	.L38
 487              	.L39:
 442:Drivers/STM32F1xx_HAL_Driver/Src/stm32f1xx_hal_adc_ex.c ****         {
 443:Drivers/STM32F1xx_HAL_Driver/Src/stm32f1xx_hal_adc_ex.c ****           /* Update ADC state machine to timeout */
 444:Drivers/STM32F1xx_HAL_Driver/Src/stm32f1xx_hal_adc_ex.c ****           SET_BIT(hadc->State, HAL_ADC_STATE_TIMEOUT);
 488              		.loc 1 444 0 is_stmt 1
 489 0030 AB6A     		ldr	r3, [r5, #40]
 490 0032 43F00403 		orr	r3, r3, #4
 491 0036 AB62     		str	r3, [r5, #40]
 445:Drivers/STM32F1xx_HAL_Driver/Src/stm32f1xx_hal_adc_ex.c ****           
 446:Drivers/STM32F1xx_HAL_Driver/Src/stm32f1xx_hal_adc_ex.c ****           /* Process unlocked */
 447:Drivers/STM32F1xx_HAL_Driver/Src/stm32f1xx_hal_adc_ex.c ****           __HAL_UNLOCK(hadc);
 492              		.loc 1 447 0
 493 0038 0023     		movs	r3, #0
 494 003a 85F82430 		strb	r3, [r5, #36]
 448:Drivers/STM32F1xx_HAL_Driver/Src/stm32f1xx_hal_adc_ex.c ****           
 449:Drivers/STM32F1xx_HAL_Driver/Src/stm32f1xx_hal_adc_ex.c ****           return HAL_TIMEOUT;
 495              		.loc 1 449 0
 496 003e 0320     		movs	r0, #3
 497 0040 87E0     		b	.L40
 498              	.L38:
 436:Drivers/STM32F1xx_HAL_Driver/Src/stm32f1xx_hal_adc_ex.c ****     {
 499              		.loc 1 436 0
 500 0042 2B68     		ldr	r3, [r5]
 501 0044 1B68     		ldr	r3, [r3]
 502 0046 13F0040F 		tst	r3, #4
 503 004a E8D0     		beq	.L41
 504 004c 51E0     		b	.L42
 505              	.LVL41:
 506              	.L60:
 450:Drivers/STM32F1xx_HAL_Driver/Src/stm32f1xx_hal_adc_ex.c ****         }
 451:Drivers/STM32F1xx_HAL_Driver/Src/stm32f1xx_hal_adc_ex.c ****       }
 452:Drivers/STM32F1xx_HAL_Driver/Src/stm32f1xx_hal_adc_ex.c ****     }
 453:Drivers/STM32F1xx_HAL_Driver/Src/stm32f1xx_hal_adc_ex.c ****   }
 454:Drivers/STM32F1xx_HAL_Driver/Src/stm32f1xx_hal_adc_ex.c ****   else
ARM GAS  C:\Users\Areg\AppData\Local\Temp\cc1Gg1eQ.s 			page 18


 455:Drivers/STM32F1xx_HAL_Driver/Src/stm32f1xx_hal_adc_ex.c ****   {
 456:Drivers/STM32F1xx_HAL_Driver/Src/stm32f1xx_hal_adc_ex.c ****     /* Replace polling by wait for maximum conversion time */
 457:Drivers/STM32F1xx_HAL_Driver/Src/stm32f1xx_hal_adc_ex.c ****     /*  - Computation of CPU clock cycles corresponding to ADC clock cycles   */
 458:Drivers/STM32F1xx_HAL_Driver/Src/stm32f1xx_hal_adc_ex.c ****     /*    and ADC maximum conversion cycles on all channels.                  */
 459:Drivers/STM32F1xx_HAL_Driver/Src/stm32f1xx_hal_adc_ex.c ****     /*  - Wait for the expected ADC clock cycles delay                        */
 460:Drivers/STM32F1xx_HAL_Driver/Src/stm32f1xx_hal_adc_ex.c ****     Conversion_Timeout_CPU_cycles_max = ((SystemCoreClock
 461:Drivers/STM32F1xx_HAL_Driver/Src/stm32f1xx_hal_adc_ex.c ****                                           / HAL_RCCEx_GetPeriphCLKFreq(RCC_PERIPHCLK_ADC))
 507              		.loc 1 461 0
 508 004e 424B     		ldr	r3, .L62
 509 0050 1F68     		ldr	r7, [r3]
 510 0052 0220     		movs	r0, #2
 511              	.LVL42:
 512 0054 FFF7FEFF 		bl	HAL_RCCEx_GetPeriphCLKFreq
 513              	.LVL43:
 514 0058 B7FBF0F0 		udiv	r0, r7, r0
 462:Drivers/STM32F1xx_HAL_Driver/Src/stm32f1xx_hal_adc_ex.c ****                                          * ADC_CONVCYCLES_MAX_RANGE(hadc)                 );
 515              		.loc 1 462 0
 516 005c 2B68     		ldr	r3, [r5]
 517 005e 1969     		ldr	r1, [r3, #16]
 518 0060 3E4A     		ldr	r2, .L62+4
 519 0062 1142     		tst	r1, r2
 520 0064 0ED1     		bne	.L43
 521              		.loc 1 462 0 is_stmt 0 discriminator 1
 522 0066 D968     		ldr	r1, [r3, #12]
 523 0068 02F15C42 		add	r2, r2, #-603979776
 524 006c 1142     		tst	r1, r2
 525 006e 09D1     		bne	.L43
 526              		.loc 1 462 0 discriminator 3
 527 0070 1969     		ldr	r1, [r3, #16]
 528 0072 3B4A     		ldr	r2, .L62+8
 529 0074 1142     		tst	r1, r2
 530 0076 18D1     		bne	.L51
 531              		.loc 1 462 0 discriminator 5
 532 0078 DA68     		ldr	r2, [r3, #12]
 533 007a 3A4B     		ldr	r3, .L62+12
 534 007c 1A42     		tst	r2, r3
 535 007e 16D0     		beq	.L52
 536              		.loc 1 462 0
 537 0080 2927     		movs	r7, #41
 538 0082 1BE0     		b	.L44
 539              	.L43:
 540              		.loc 1 462 0 discriminator 4
 541 0084 1969     		ldr	r1, [r3, #16]
 542 0086 364A     		ldr	r2, .L62+8
 543 0088 1142     		tst	r1, r2
 544 008a 04D1     		bne	.L45
 545              		.loc 1 462 0 discriminator 11
 546 008c D968     		ldr	r1, [r3, #12]
 547 008e 02F16E42 		add	r2, r2, #-301989888
 548 0092 1142     		tst	r1, r2
 549 0094 0DD0     		beq	.L53
 550              	.L45:
 551              		.loc 1 462 0 discriminator 14
 552 0096 1969     		ldr	r1, [r3, #16]
 553 0098 334A     		ldr	r2, .L62+16
 554 009a 0A40     		ands	r2, r2, r1
 555 009c 5AB9     		cbnz	r2, .L54
ARM GAS  C:\Users\Areg\AppData\Local\Temp\cc1Gg1eQ.s 			page 19


 556              		.loc 1 462 0 discriminator 15
 557 009e DA68     		ldr	r2, [r3, #12]
 558 00a0 314B     		ldr	r3, .L62+16
 559 00a2 1340     		ands	r3, r3, r2
 560 00a4 4BB1     		cbz	r3, .L55
 561              		.loc 1 462 0
 562 00a6 FC27     		movs	r7, #252
 563 00a8 08E0     		b	.L44
 564              	.L51:
 565 00aa 2927     		movs	r7, #41
 566 00ac 06E0     		b	.L44
 567              	.L52:
 568 00ae 1427     		movs	r7, #20
 569 00b0 04E0     		b	.L44
 570              	.L53:
 571 00b2 5427     		movs	r7, #84
 572 00b4 02E0     		b	.L44
 573              	.L54:
 574 00b6 FC27     		movs	r7, #252
 575 00b8 00E0     		b	.L44
 576              	.L55:
 577 00ba 5427     		movs	r7, #84
 578              	.L44:
 460:Drivers/STM32F1xx_HAL_Driver/Src/stm32f1xx_hal_adc_ex.c ****                                           / HAL_RCCEx_GetPeriphCLKFreq(RCC_PERIPHCLK_ADC))
 579              		.loc 1 460 0 is_stmt 1
 580 00bc 00FB07F7 		mul	r7, r0, r7
 581              	.LVL44:
 463:Drivers/STM32F1xx_HAL_Driver/Src/stm32f1xx_hal_adc_ex.c ****     
 464:Drivers/STM32F1xx_HAL_Driver/Src/stm32f1xx_hal_adc_ex.c ****     while(Conversion_Timeout_CPU_cycles < Conversion_Timeout_CPU_cycles_max)
 582              		.loc 1 464 0
 583 00c0 14E0     		b	.L46
 584              	.L49:
 465:Drivers/STM32F1xx_HAL_Driver/Src/stm32f1xx_hal_adc_ex.c ****     {
 466:Drivers/STM32F1xx_HAL_Driver/Src/stm32f1xx_hal_adc_ex.c ****       /* Check if timeout is disabled (set to infinite wait) */
 467:Drivers/STM32F1xx_HAL_Driver/Src/stm32f1xx_hal_adc_ex.c ****       if(Timeout != HAL_MAX_DELAY)
 585              		.loc 1 467 0
 586 00c2 B4F1FF3F 		cmp	r4, #-1
 587 00c6 0ED0     		beq	.L47
 468:Drivers/STM32F1xx_HAL_Driver/Src/stm32f1xx_hal_adc_ex.c ****       {
 469:Drivers/STM32F1xx_HAL_Driver/Src/stm32f1xx_hal_adc_ex.c ****         if((Timeout == 0)||((HAL_GetTick() - tickstart ) > Timeout))
 588              		.loc 1 469 0
 589 00c8 24B1     		cbz	r4, .L48
 590              		.loc 1 469 0 is_stmt 0 discriminator 1
 591 00ca FFF7FEFF 		bl	HAL_GetTick
 592              	.LVL45:
 593 00ce 801B     		subs	r0, r0, r6
 594 00d0 8442     		cmp	r4, r0
 595 00d2 08D2     		bcs	.L47
 596              	.L48:
 470:Drivers/STM32F1xx_HAL_Driver/Src/stm32f1xx_hal_adc_ex.c ****         {
 471:Drivers/STM32F1xx_HAL_Driver/Src/stm32f1xx_hal_adc_ex.c ****           /* Update ADC state machine to timeout */
 472:Drivers/STM32F1xx_HAL_Driver/Src/stm32f1xx_hal_adc_ex.c ****           SET_BIT(hadc->State, HAL_ADC_STATE_TIMEOUT);
 597              		.loc 1 472 0 is_stmt 1
 598 00d4 AB6A     		ldr	r3, [r5, #40]
 599 00d6 43F00403 		orr	r3, r3, #4
 600 00da AB62     		str	r3, [r5, #40]
 473:Drivers/STM32F1xx_HAL_Driver/Src/stm32f1xx_hal_adc_ex.c **** 
ARM GAS  C:\Users\Areg\AppData\Local\Temp\cc1Gg1eQ.s 			page 20


 474:Drivers/STM32F1xx_HAL_Driver/Src/stm32f1xx_hal_adc_ex.c ****           /* Process unlocked */
 475:Drivers/STM32F1xx_HAL_Driver/Src/stm32f1xx_hal_adc_ex.c ****           __HAL_UNLOCK(hadc);
 601              		.loc 1 475 0
 602 00dc 0023     		movs	r3, #0
 603 00de 85F82430 		strb	r3, [r5, #36]
 476:Drivers/STM32F1xx_HAL_Driver/Src/stm32f1xx_hal_adc_ex.c ****           
 477:Drivers/STM32F1xx_HAL_Driver/Src/stm32f1xx_hal_adc_ex.c ****           return HAL_TIMEOUT;
 604              		.loc 1 477 0
 605 00e2 0320     		movs	r0, #3
 606 00e4 35E0     		b	.L40
 607              	.L47:
 478:Drivers/STM32F1xx_HAL_Driver/Src/stm32f1xx_hal_adc_ex.c ****         }
 479:Drivers/STM32F1xx_HAL_Driver/Src/stm32f1xx_hal_adc_ex.c ****       }
 480:Drivers/STM32F1xx_HAL_Driver/Src/stm32f1xx_hal_adc_ex.c ****       Conversion_Timeout_CPU_cycles ++;
 608              		.loc 1 480 0
 609 00e6 019B     		ldr	r3, [sp, #4]
 610 00e8 0133     		adds	r3, r3, #1
 611 00ea 0193     		str	r3, [sp, #4]
 612              	.L46:
 464:Drivers/STM32F1xx_HAL_Driver/Src/stm32f1xx_hal_adc_ex.c ****     {
 613              		.loc 1 464 0
 614 00ec 019B     		ldr	r3, [sp, #4]
 615 00ee 9F42     		cmp	r7, r3
 616 00f0 E7D8     		bhi	.L49
 617              	.LVL46:
 618              	.L42:
 481:Drivers/STM32F1xx_HAL_Driver/Src/stm32f1xx_hal_adc_ex.c ****     }
 482:Drivers/STM32F1xx_HAL_Driver/Src/stm32f1xx_hal_adc_ex.c ****   }
 483:Drivers/STM32F1xx_HAL_Driver/Src/stm32f1xx_hal_adc_ex.c **** 
 484:Drivers/STM32F1xx_HAL_Driver/Src/stm32f1xx_hal_adc_ex.c ****   /* Clear injected group conversion flag */
 485:Drivers/STM32F1xx_HAL_Driver/Src/stm32f1xx_hal_adc_ex.c ****   /* Note: On STM32F1 ADC, clear regular conversion flag raised               */
 486:Drivers/STM32F1xx_HAL_Driver/Src/stm32f1xx_hal_adc_ex.c ****   /* simultaneously.                                                          */
 487:Drivers/STM32F1xx_HAL_Driver/Src/stm32f1xx_hal_adc_ex.c ****   __HAL_ADC_CLEAR_FLAG(hadc, ADC_FLAG_JSTRT | ADC_FLAG_JEOC | ADC_FLAG_EOC);
 619              		.loc 1 487 0
 620 00f2 2B68     		ldr	r3, [r5]
 621 00f4 6FF00E02 		mvn	r2, #14
 622 00f8 1A60     		str	r2, [r3]
 488:Drivers/STM32F1xx_HAL_Driver/Src/stm32f1xx_hal_adc_ex.c ****   
 489:Drivers/STM32F1xx_HAL_Driver/Src/stm32f1xx_hal_adc_ex.c ****   /* Update ADC state machine */
 490:Drivers/STM32F1xx_HAL_Driver/Src/stm32f1xx_hal_adc_ex.c ****   SET_BIT(hadc->State, HAL_ADC_STATE_INJ_EOC);
 623              		.loc 1 490 0
 624 00fa AB6A     		ldr	r3, [r5, #40]
 625 00fc 43F40053 		orr	r3, r3, #8192
 626 0100 AB62     		str	r3, [r5, #40]
 491:Drivers/STM32F1xx_HAL_Driver/Src/stm32f1xx_hal_adc_ex.c ****   
 492:Drivers/STM32F1xx_HAL_Driver/Src/stm32f1xx_hal_adc_ex.c ****   /* Determine whether any further conversion upcoming on group injected      */
 493:Drivers/STM32F1xx_HAL_Driver/Src/stm32f1xx_hal_adc_ex.c ****   /* by external trigger or by automatic injected conversion                  */
 494:Drivers/STM32F1xx_HAL_Driver/Src/stm32f1xx_hal_adc_ex.c ****   /* from group regular.                                                      */
 495:Drivers/STM32F1xx_HAL_Driver/Src/stm32f1xx_hal_adc_ex.c ****   if(ADC_IS_SOFTWARE_START_INJECTED(hadc)                     || 
 627              		.loc 1 495 0
 628 0102 2A68     		ldr	r2, [r5]
 629 0104 9368     		ldr	r3, [r2, #8]
 630 0106 03F4E043 		and	r3, r3, #28672
 631 010a B3F5E04F 		cmp	r3, #28672
 632 010e 0BD0     		beq	.L50
 496:Drivers/STM32F1xx_HAL_Driver/Src/stm32f1xx_hal_adc_ex.c ****      (HAL_IS_BIT_CLR(hadc->Instance->CR1, ADC_CR1_JAUTO) &&     
 633              		.loc 1 496 0 discriminator 1
ARM GAS  C:\Users\Areg\AppData\Local\Temp\cc1Gg1eQ.s 			page 21


 634 0110 5368     		ldr	r3, [r2, #4]
 495:Drivers/STM32F1xx_HAL_Driver/Src/stm32f1xx_hal_adc_ex.c ****      (HAL_IS_BIT_CLR(hadc->Instance->CR1, ADC_CR1_JAUTO) &&     
 635              		.loc 1 495 0 discriminator 1
 636 0112 13F4806F 		tst	r3, #1024
 637 0116 15D1     		bne	.L56
 497:Drivers/STM32F1xx_HAL_Driver/Src/stm32f1xx_hal_adc_ex.c ****      (ADC_IS_SOFTWARE_START_REGULAR(hadc)        &&
 638              		.loc 1 497 0
 639 0118 9368     		ldr	r3, [r2, #8]
 640 011a 03F46023 		and	r3, r3, #917504
 496:Drivers/STM32F1xx_HAL_Driver/Src/stm32f1xx_hal_adc_ex.c ****      (HAL_IS_BIT_CLR(hadc->Instance->CR1, ADC_CR1_JAUTO) &&     
 641              		.loc 1 496 0
 642 011e B3F5602F 		cmp	r3, #917504
 643 0122 11D1     		bne	.L57
 498:Drivers/STM32F1xx_HAL_Driver/Src/stm32f1xx_hal_adc_ex.c ****       (hadc->Init.ContinuousConvMode == DISABLE)   )        )   )
 644              		.loc 1 498 0
 645 0124 EB68     		ldr	r3, [r5, #12]
 497:Drivers/STM32F1xx_HAL_Driver/Src/stm32f1xx_hal_adc_ex.c ****      (ADC_IS_SOFTWARE_START_REGULAR(hadc)        &&
 646              		.loc 1 497 0
 647 0126 8BB9     		cbnz	r3, .L58
 648              	.L50:
 499:Drivers/STM32F1xx_HAL_Driver/Src/stm32f1xx_hal_adc_ex.c ****   {
 500:Drivers/STM32F1xx_HAL_Driver/Src/stm32f1xx_hal_adc_ex.c ****     /* Set ADC state */
 501:Drivers/STM32F1xx_HAL_Driver/Src/stm32f1xx_hal_adc_ex.c ****     CLEAR_BIT(hadc->State, HAL_ADC_STATE_INJ_BUSY);   
 649              		.loc 1 501 0
 650 0128 AB6A     		ldr	r3, [r5, #40]
 651 012a 23F48053 		bic	r3, r3, #4096
 652 012e AB62     		str	r3, [r5, #40]
 502:Drivers/STM32F1xx_HAL_Driver/Src/stm32f1xx_hal_adc_ex.c ****     
 503:Drivers/STM32F1xx_HAL_Driver/Src/stm32f1xx_hal_adc_ex.c ****     if (HAL_IS_BIT_CLR(hadc->State, HAL_ADC_STATE_REG_BUSY))
 653              		.loc 1 503 0
 654 0130 AB6A     		ldr	r3, [r5, #40]
 655 0132 13F4807F 		tst	r3, #256
 656 0136 0BD1     		bne	.L59
 504:Drivers/STM32F1xx_HAL_Driver/Src/stm32f1xx_hal_adc_ex.c ****     {
 505:Drivers/STM32F1xx_HAL_Driver/Src/stm32f1xx_hal_adc_ex.c ****       SET_BIT(hadc->State, HAL_ADC_STATE_READY);
 657              		.loc 1 505 0
 658 0138 AB6A     		ldr	r3, [r5, #40]
 659 013a 43F00103 		orr	r3, r3, #1
 660 013e AB62     		str	r3, [r5, #40]
 506:Drivers/STM32F1xx_HAL_Driver/Src/stm32f1xx_hal_adc_ex.c ****     }
 507:Drivers/STM32F1xx_HAL_Driver/Src/stm32f1xx_hal_adc_ex.c ****   }
 508:Drivers/STM32F1xx_HAL_Driver/Src/stm32f1xx_hal_adc_ex.c ****   
 509:Drivers/STM32F1xx_HAL_Driver/Src/stm32f1xx_hal_adc_ex.c ****   /* Return ADC state */
 510:Drivers/STM32F1xx_HAL_Driver/Src/stm32f1xx_hal_adc_ex.c ****   return HAL_OK;
 661              		.loc 1 510 0
 662 0140 0020     		movs	r0, #0
 663 0142 06E0     		b	.L40
 664              	.L56:
 665 0144 0020     		movs	r0, #0
 666 0146 04E0     		b	.L40
 667              	.L57:
 668 0148 0020     		movs	r0, #0
 669 014a 02E0     		b	.L40
 670              	.L58:
 671 014c 0020     		movs	r0, #0
 672 014e 00E0     		b	.L40
 673              	.L59:
ARM GAS  C:\Users\Areg\AppData\Local\Temp\cc1Gg1eQ.s 			page 22


 674 0150 0020     		movs	r0, #0
 675              	.L40:
 511:Drivers/STM32F1xx_HAL_Driver/Src/stm32f1xx_hal_adc_ex.c **** }
 676              		.loc 1 511 0
 677 0152 03B0     		add	sp, sp, #12
 678              	.LCFI10:
 679              		.cfi_def_cfa_offset 20
 680              		@ sp needed
 681 0154 F0BD     		pop	{r4, r5, r6, r7, pc}
 682              	.LVL47:
 683              	.L63:
 684 0156 00BF     		.align	2
 685              	.L62:
 686 0158 00000000 		.word	SystemCoreClock
 687 015c 24499224 		.word	613566756
 688 0160 92244912 		.word	306783378
 689 0164 92244900 		.word	4793490
 690 0168 49922400 		.word	2396745
 691              		.cfi_endproc
 692              	.LFE67:
 694              		.section	.text.HAL_ADCEx_InjectedStart_IT,"ax",%progbits
 695              		.align	2
 696              		.global	HAL_ADCEx_InjectedStart_IT
 697              		.thumb
 698              		.thumb_func
 700              	HAL_ADCEx_InjectedStart_IT:
 701              	.LFB68:
 512:Drivers/STM32F1xx_HAL_Driver/Src/stm32f1xx_hal_adc_ex.c **** 
 513:Drivers/STM32F1xx_HAL_Driver/Src/stm32f1xx_hal_adc_ex.c **** /**
 514:Drivers/STM32F1xx_HAL_Driver/Src/stm32f1xx_hal_adc_ex.c ****   * @brief  Enables ADC, starts conversion of injected group with interruption.
 515:Drivers/STM32F1xx_HAL_Driver/Src/stm32f1xx_hal_adc_ex.c ****   *          - JEOC (end of conversion of injected group)
 516:Drivers/STM32F1xx_HAL_Driver/Src/stm32f1xx_hal_adc_ex.c ****   *         Each of these interruptions has its dedicated callback function.
 517:Drivers/STM32F1xx_HAL_Driver/Src/stm32f1xx_hal_adc_ex.c ****   * @param  hadc: ADC handle
 518:Drivers/STM32F1xx_HAL_Driver/Src/stm32f1xx_hal_adc_ex.c ****   * @retval HAL status.
 519:Drivers/STM32F1xx_HAL_Driver/Src/stm32f1xx_hal_adc_ex.c ****   */
 520:Drivers/STM32F1xx_HAL_Driver/Src/stm32f1xx_hal_adc_ex.c **** HAL_StatusTypeDef HAL_ADCEx_InjectedStart_IT(ADC_HandleTypeDef* hadc)
 521:Drivers/STM32F1xx_HAL_Driver/Src/stm32f1xx_hal_adc_ex.c **** {
 702              		.loc 1 521 0
 703              		.cfi_startproc
 704              		@ args = 0, pretend = 0, frame = 0
 705              		@ frame_needed = 0, uses_anonymous_args = 0
 706              	.LVL48:
 522:Drivers/STM32F1xx_HAL_Driver/Src/stm32f1xx_hal_adc_ex.c ****   HAL_StatusTypeDef tmp_hal_status = HAL_OK;
 523:Drivers/STM32F1xx_HAL_Driver/Src/stm32f1xx_hal_adc_ex.c ****   
 524:Drivers/STM32F1xx_HAL_Driver/Src/stm32f1xx_hal_adc_ex.c ****   /* Check the parameters */
 525:Drivers/STM32F1xx_HAL_Driver/Src/stm32f1xx_hal_adc_ex.c ****   assert_param(IS_ADC_ALL_INSTANCE(hadc->Instance));
 526:Drivers/STM32F1xx_HAL_Driver/Src/stm32f1xx_hal_adc_ex.c ****   
 527:Drivers/STM32F1xx_HAL_Driver/Src/stm32f1xx_hal_adc_ex.c ****   /* Process locked */
 528:Drivers/STM32F1xx_HAL_Driver/Src/stm32f1xx_hal_adc_ex.c ****   __HAL_LOCK(hadc);
 707              		.loc 1 528 0
 708 0000 90F82430 		ldrb	r3, [r0, #36]	@ zero_extendqisi2
 709 0004 012B     		cmp	r3, #1
 710 0006 59D0     		beq	.L73
 521:Drivers/STM32F1xx_HAL_Driver/Src/stm32f1xx_hal_adc_ex.c ****   HAL_StatusTypeDef tmp_hal_status = HAL_OK;
 711              		.loc 1 521 0 discriminator 2
 712 0008 10B5     		push	{r4, lr}
 713              	.LCFI11:
ARM GAS  C:\Users\Areg\AppData\Local\Temp\cc1Gg1eQ.s 			page 23


 714              		.cfi_def_cfa_offset 8
 715              		.cfi_offset 4, -8
 716              		.cfi_offset 14, -4
 717 000a 0446     		mov	r4, r0
 718              		.loc 1 528 0 discriminator 2
 719 000c 0123     		movs	r3, #1
 720 000e 80F82430 		strb	r3, [r0, #36]
 529:Drivers/STM32F1xx_HAL_Driver/Src/stm32f1xx_hal_adc_ex.c ****     
 530:Drivers/STM32F1xx_HAL_Driver/Src/stm32f1xx_hal_adc_ex.c ****   /* Enable the ADC peripheral */
 531:Drivers/STM32F1xx_HAL_Driver/Src/stm32f1xx_hal_adc_ex.c ****   tmp_hal_status = ADC_Enable(hadc);
 721              		.loc 1 531 0 discriminator 2
 722 0012 FFF7FEFF 		bl	ADC_Enable
 723              	.LVL49:
 532:Drivers/STM32F1xx_HAL_Driver/Src/stm32f1xx_hal_adc_ex.c ****   
 533:Drivers/STM32F1xx_HAL_Driver/Src/stm32f1xx_hal_adc_ex.c ****   /* Start conversion if ADC is effectively enabled */
 534:Drivers/STM32F1xx_HAL_Driver/Src/stm32f1xx_hal_adc_ex.c ****   if (tmp_hal_status == HAL_OK)
 724              		.loc 1 534 0 discriminator 2
 725 0016 0346     		mov	r3, r0
 726 0018 0028     		cmp	r0, #0
 727 001a 4BD1     		bne	.L66
 535:Drivers/STM32F1xx_HAL_Driver/Src/stm32f1xx_hal_adc_ex.c ****   {
 536:Drivers/STM32F1xx_HAL_Driver/Src/stm32f1xx_hal_adc_ex.c ****     /* Set ADC state                                                          */
 537:Drivers/STM32F1xx_HAL_Driver/Src/stm32f1xx_hal_adc_ex.c ****     /* - Clear state bitfield related to injected group conversion results    */
 538:Drivers/STM32F1xx_HAL_Driver/Src/stm32f1xx_hal_adc_ex.c ****     /* - Set state bitfield related to injected operation                     */
 539:Drivers/STM32F1xx_HAL_Driver/Src/stm32f1xx_hal_adc_ex.c ****     ADC_STATE_CLR_SET(hadc->State,
 728              		.loc 1 539 0
 729 001c A26A     		ldr	r2, [r4, #40]
 730 001e 22F44052 		bic	r2, r2, #12288
 731 0022 22F00102 		bic	r2, r2, #1
 732 0026 42F48052 		orr	r2, r2, #4096
 733 002a A262     		str	r2, [r4, #40]
 540:Drivers/STM32F1xx_HAL_Driver/Src/stm32f1xx_hal_adc_ex.c ****                       HAL_ADC_STATE_READY | HAL_ADC_STATE_INJ_EOC,
 541:Drivers/STM32F1xx_HAL_Driver/Src/stm32f1xx_hal_adc_ex.c ****                       HAL_ADC_STATE_INJ_BUSY);
 542:Drivers/STM32F1xx_HAL_Driver/Src/stm32f1xx_hal_adc_ex.c ****     
 543:Drivers/STM32F1xx_HAL_Driver/Src/stm32f1xx_hal_adc_ex.c ****     /* Case of independent mode or multimode (for devices with several ADCs): */
 544:Drivers/STM32F1xx_HAL_Driver/Src/stm32f1xx_hal_adc_ex.c ****     /* Set multimode state.                                                   */
 545:Drivers/STM32F1xx_HAL_Driver/Src/stm32f1xx_hal_adc_ex.c ****     if (ADC_NONMULTIMODE_OR_MULTIMODEMASTER(hadc))
 734              		.loc 1 545 0
 735 002c 2168     		ldr	r1, [r4]
 736 002e 254A     		ldr	r2, .L76
 737 0030 9142     		cmp	r1, r2
 738 0032 05D1     		bne	.L67
 739              		.loc 1 545 0 is_stmt 0 discriminator 1
 740 0034 A2F58062 		sub	r2, r2, #1024
 741 0038 5268     		ldr	r2, [r2, #4]
 742 003a 12F4702F 		tst	r2, #983040
 743 003e 04D1     		bne	.L68
 744              	.L67:
 546:Drivers/STM32F1xx_HAL_Driver/Src/stm32f1xx_hal_adc_ex.c ****     {
 547:Drivers/STM32F1xx_HAL_Driver/Src/stm32f1xx_hal_adc_ex.c ****       CLEAR_BIT(hadc->State, HAL_ADC_STATE_MULTIMODE_SLAVE);
 745              		.loc 1 547 0 is_stmt 1
 746 0040 A26A     		ldr	r2, [r4, #40]
 747 0042 22F48012 		bic	r2, r2, #1048576
 748 0046 A262     		str	r2, [r4, #40]
 749 0048 03E0     		b	.L69
 750              	.L68:
 548:Drivers/STM32F1xx_HAL_Driver/Src/stm32f1xx_hal_adc_ex.c ****     }
ARM GAS  C:\Users\Areg\AppData\Local\Temp\cc1Gg1eQ.s 			page 24


 549:Drivers/STM32F1xx_HAL_Driver/Src/stm32f1xx_hal_adc_ex.c ****     else
 550:Drivers/STM32F1xx_HAL_Driver/Src/stm32f1xx_hal_adc_ex.c ****     {
 551:Drivers/STM32F1xx_HAL_Driver/Src/stm32f1xx_hal_adc_ex.c ****       SET_BIT(hadc->State, HAL_ADC_STATE_MULTIMODE_SLAVE);
 751              		.loc 1 551 0
 752 004a A26A     		ldr	r2, [r4, #40]
 753 004c 42F48012 		orr	r2, r2, #1048576
 754 0050 A262     		str	r2, [r4, #40]
 755              	.L69:
 552:Drivers/STM32F1xx_HAL_Driver/Src/stm32f1xx_hal_adc_ex.c ****     }
 553:Drivers/STM32F1xx_HAL_Driver/Src/stm32f1xx_hal_adc_ex.c ****     
 554:Drivers/STM32F1xx_HAL_Driver/Src/stm32f1xx_hal_adc_ex.c ****     /* Check if a regular conversion is ongoing */
 555:Drivers/STM32F1xx_HAL_Driver/Src/stm32f1xx_hal_adc_ex.c ****     /* Note: On this device, there is no ADC error code fields related to     */
 556:Drivers/STM32F1xx_HAL_Driver/Src/stm32f1xx_hal_adc_ex.c ****     /*       conversions on group injected only. In case of conversion on     */
 557:Drivers/STM32F1xx_HAL_Driver/Src/stm32f1xx_hal_adc_ex.c ****     /*       going on group regular, no error code is reset.                  */
 558:Drivers/STM32F1xx_HAL_Driver/Src/stm32f1xx_hal_adc_ex.c ****     if (HAL_IS_BIT_CLR(hadc->State, HAL_ADC_STATE_REG_BUSY))
 756              		.loc 1 558 0
 757 0052 A26A     		ldr	r2, [r4, #40]
 758 0054 12F4807F 		tst	r2, #256
 759 0058 01D1     		bne	.L70
 559:Drivers/STM32F1xx_HAL_Driver/Src/stm32f1xx_hal_adc_ex.c ****     {
 560:Drivers/STM32F1xx_HAL_Driver/Src/stm32f1xx_hal_adc_ex.c ****       /* Reset ADC all error code fields */
 561:Drivers/STM32F1xx_HAL_Driver/Src/stm32f1xx_hal_adc_ex.c ****       ADC_CLEAR_ERRORCODE(hadc);
 760              		.loc 1 561 0
 761 005a 0022     		movs	r2, #0
 762 005c E262     		str	r2, [r4, #44]
 763              	.L70:
 562:Drivers/STM32F1xx_HAL_Driver/Src/stm32f1xx_hal_adc_ex.c ****     }
 563:Drivers/STM32F1xx_HAL_Driver/Src/stm32f1xx_hal_adc_ex.c ****     
 564:Drivers/STM32F1xx_HAL_Driver/Src/stm32f1xx_hal_adc_ex.c ****     /* Process unlocked */
 565:Drivers/STM32F1xx_HAL_Driver/Src/stm32f1xx_hal_adc_ex.c ****     /* Unlock before starting ADC conversions: in case of potential           */
 566:Drivers/STM32F1xx_HAL_Driver/Src/stm32f1xx_hal_adc_ex.c ****     /* interruption, to let the process to ADC IRQ Handler.                   */
 567:Drivers/STM32F1xx_HAL_Driver/Src/stm32f1xx_hal_adc_ex.c ****     __HAL_UNLOCK(hadc);
 764              		.loc 1 567 0
 765 005e 0022     		movs	r2, #0
 766 0060 84F82420 		strb	r2, [r4, #36]
 568:Drivers/STM32F1xx_HAL_Driver/Src/stm32f1xx_hal_adc_ex.c ****     
 569:Drivers/STM32F1xx_HAL_Driver/Src/stm32f1xx_hal_adc_ex.c ****     /* Clear injected group conversion flag */
 570:Drivers/STM32F1xx_HAL_Driver/Src/stm32f1xx_hal_adc_ex.c ****     /* (To ensure of no unknown state from potential previous ADC operations) */
 571:Drivers/STM32F1xx_HAL_Driver/Src/stm32f1xx_hal_adc_ex.c ****     __HAL_ADC_CLEAR_FLAG(hadc, ADC_FLAG_JEOC);
 767              		.loc 1 571 0
 768 0064 6FF00402 		mvn	r2, #4
 769 0068 0A60     		str	r2, [r1]
 572:Drivers/STM32F1xx_HAL_Driver/Src/stm32f1xx_hal_adc_ex.c ****     
 573:Drivers/STM32F1xx_HAL_Driver/Src/stm32f1xx_hal_adc_ex.c ****     /* Enable end of conversion interrupt for injected channels */
 574:Drivers/STM32F1xx_HAL_Driver/Src/stm32f1xx_hal_adc_ex.c ****     __HAL_ADC_ENABLE_IT(hadc, ADC_IT_JEOC);
 770              		.loc 1 574 0
 771 006a 2168     		ldr	r1, [r4]
 772 006c 4A68     		ldr	r2, [r1, #4]
 773 006e 42F08002 		orr	r2, r2, #128
 774 0072 4A60     		str	r2, [r1, #4]
 575:Drivers/STM32F1xx_HAL_Driver/Src/stm32f1xx_hal_adc_ex.c ****     
 576:Drivers/STM32F1xx_HAL_Driver/Src/stm32f1xx_hal_adc_ex.c ****     /* Start conversion of injected group if software start has been selected */
 577:Drivers/STM32F1xx_HAL_Driver/Src/stm32f1xx_hal_adc_ex.c ****     /* and if automatic injected conversion is disabled.                      */
 578:Drivers/STM32F1xx_HAL_Driver/Src/stm32f1xx_hal_adc_ex.c ****     /* If external trigger has been selected, conversion will start at next   */
 579:Drivers/STM32F1xx_HAL_Driver/Src/stm32f1xx_hal_adc_ex.c ****     /* trigger event.                                                         */
 580:Drivers/STM32F1xx_HAL_Driver/Src/stm32f1xx_hal_adc_ex.c ****     /* If automatic injected conversion is enabled, conversion will start     */
 581:Drivers/STM32F1xx_HAL_Driver/Src/stm32f1xx_hal_adc_ex.c ****     /* after next regular group conversion.                                   */
ARM GAS  C:\Users\Areg\AppData\Local\Temp\cc1Gg1eQ.s 			page 25


 582:Drivers/STM32F1xx_HAL_Driver/Src/stm32f1xx_hal_adc_ex.c ****     if (HAL_IS_BIT_CLR(hadc->Instance->CR1, ADC_CR1_JAUTO))
 775              		.loc 1 582 0
 776 0074 2268     		ldr	r2, [r4]
 777 0076 5168     		ldr	r1, [r2, #4]
 778 0078 11F4806F 		tst	r1, #1024
 779 007c 20D1     		bne	.L74
 583:Drivers/STM32F1xx_HAL_Driver/Src/stm32f1xx_hal_adc_ex.c ****     {
 584:Drivers/STM32F1xx_HAL_Driver/Src/stm32f1xx_hal_adc_ex.c ****       if (ADC_IS_SOFTWARE_START_INJECTED(hadc)     &&
 780              		.loc 1 584 0
 781 007e 9168     		ldr	r1, [r2, #8]
 782 0080 01F4E041 		and	r1, r1, #28672
 783 0084 B1F5E04F 		cmp	r1, #28672
 784 0088 0ED1     		bne	.L71
 785              		.loc 1 584 0 is_stmt 0 discriminator 1
 786 008a 0E49     		ldr	r1, .L76
 787 008c 8A42     		cmp	r2, r1
 788 008e 05D1     		bne	.L72
 585:Drivers/STM32F1xx_HAL_Driver/Src/stm32f1xx_hal_adc_ex.c ****           ADC_NONMULTIMODE_OR_MULTIMODEMASTER(hadc)  )
 789              		.loc 1 585 0 is_stmt 1 discriminator 2
 790 0090 A1F58061 		sub	r1, r1, #1024
 791 0094 4968     		ldr	r1, [r1, #4]
 584:Drivers/STM32F1xx_HAL_Driver/Src/stm32f1xx_hal_adc_ex.c ****           ADC_NONMULTIMODE_OR_MULTIMODEMASTER(hadc)  )
 792              		.loc 1 584 0 discriminator 2
 793 0096 11F4702F 		tst	r1, #983040
 794 009a 05D1     		bne	.L71
 795              	.L72:
 586:Drivers/STM32F1xx_HAL_Driver/Src/stm32f1xx_hal_adc_ex.c ****       {
 587:Drivers/STM32F1xx_HAL_Driver/Src/stm32f1xx_hal_adc_ex.c ****         /* Start ADC conversion on injected group with SW start */
 588:Drivers/STM32F1xx_HAL_Driver/Src/stm32f1xx_hal_adc_ex.c ****         SET_BIT(hadc->Instance->CR2, (ADC_CR2_JSWSTART | ADC_CR2_JEXTTRIG));
 796              		.loc 1 588 0
 797 009c 9168     		ldr	r1, [r2, #8]
 798 009e 41F40211 		orr	r1, r1, #2129920
 799 00a2 9160     		str	r1, [r2, #8]
 589:Drivers/STM32F1xx_HAL_Driver/Src/stm32f1xx_hal_adc_ex.c ****       }
 590:Drivers/STM32F1xx_HAL_Driver/Src/stm32f1xx_hal_adc_ex.c ****       else
 591:Drivers/STM32F1xx_HAL_Driver/Src/stm32f1xx_hal_adc_ex.c ****       {
 592:Drivers/STM32F1xx_HAL_Driver/Src/stm32f1xx_hal_adc_ex.c ****         /* Start ADC conversion on injected group with external trigger */
 593:Drivers/STM32F1xx_HAL_Driver/Src/stm32f1xx_hal_adc_ex.c ****         SET_BIT(hadc->Instance->CR2, ADC_CR2_JEXTTRIG);
 594:Drivers/STM32F1xx_HAL_Driver/Src/stm32f1xx_hal_adc_ex.c ****       }
 595:Drivers/STM32F1xx_HAL_Driver/Src/stm32f1xx_hal_adc_ex.c ****     }
 596:Drivers/STM32F1xx_HAL_Driver/Src/stm32f1xx_hal_adc_ex.c ****   }
 597:Drivers/STM32F1xx_HAL_Driver/Src/stm32f1xx_hal_adc_ex.c ****   else
 598:Drivers/STM32F1xx_HAL_Driver/Src/stm32f1xx_hal_adc_ex.c ****   {
 599:Drivers/STM32F1xx_HAL_Driver/Src/stm32f1xx_hal_adc_ex.c ****     /* Process unlocked */
 600:Drivers/STM32F1xx_HAL_Driver/Src/stm32f1xx_hal_adc_ex.c ****     __HAL_UNLOCK(hadc);
 601:Drivers/STM32F1xx_HAL_Driver/Src/stm32f1xx_hal_adc_ex.c ****   }
 602:Drivers/STM32F1xx_HAL_Driver/Src/stm32f1xx_hal_adc_ex.c ****   
 603:Drivers/STM32F1xx_HAL_Driver/Src/stm32f1xx_hal_adc_ex.c ****   /* Return function status */
 604:Drivers/STM32F1xx_HAL_Driver/Src/stm32f1xx_hal_adc_ex.c ****   return tmp_hal_status;
 800              		.loc 1 604 0
 801 00a4 1846     		mov	r0, r3
 802              	.LVL50:
 588:Drivers/STM32F1xx_HAL_Driver/Src/stm32f1xx_hal_adc_ex.c ****       }
 803              		.loc 1 588 0
 804 00a6 10BD     		pop	{r4, pc}
 805              	.LVL51:
 806              	.L71:
ARM GAS  C:\Users\Areg\AppData\Local\Temp\cc1Gg1eQ.s 			page 26


 593:Drivers/STM32F1xx_HAL_Driver/Src/stm32f1xx_hal_adc_ex.c ****       }
 807              		.loc 1 593 0
 808 00a8 9168     		ldr	r1, [r2, #8]
 809 00aa 41F40041 		orr	r1, r1, #32768
 810 00ae 9160     		str	r1, [r2, #8]
 811              		.loc 1 604 0
 812 00b0 1846     		mov	r0, r3
 813              	.LVL52:
 814 00b2 10BD     		pop	{r4, pc}
 815              	.LVL53:
 816              	.L66:
 600:Drivers/STM32F1xx_HAL_Driver/Src/stm32f1xx_hal_adc_ex.c ****   }
 817              		.loc 1 600 0
 818 00b4 0022     		movs	r2, #0
 819 00b6 84F82420 		strb	r2, [r4, #36]
 820 00ba 10BD     		pop	{r4, pc}
 821              	.LVL54:
 822              	.L73:
 823              	.LCFI12:
 824              		.cfi_def_cfa_offset 0
 825              		.cfi_restore 4
 826              		.cfi_restore 14
 528:Drivers/STM32F1xx_HAL_Driver/Src/stm32f1xx_hal_adc_ex.c ****     
 827              		.loc 1 528 0
 828 00bc 0220     		movs	r0, #2
 829              	.LVL55:
 605:Drivers/STM32F1xx_HAL_Driver/Src/stm32f1xx_hal_adc_ex.c **** }
 830              		.loc 1 605 0
 831 00be 7047     		bx	lr
 832              	.LVL56:
 833              	.L74:
 834              	.LCFI13:
 835              		.cfi_def_cfa_offset 8
 836              		.cfi_offset 4, -8
 837              		.cfi_offset 14, -4
 604:Drivers/STM32F1xx_HAL_Driver/Src/stm32f1xx_hal_adc_ex.c **** }
 838              		.loc 1 604 0
 839 00c0 1846     		mov	r0, r3
 840              	.LVL57:
 841              		.loc 1 605 0
 842 00c2 10BD     		pop	{r4, pc}
 843              	.LVL58:
 844              	.L77:
 845              		.align	2
 846              	.L76:
 847 00c4 00280140 		.word	1073817600
 848              		.cfi_endproc
 849              	.LFE68:
 851              		.section	.text.HAL_ADCEx_InjectedStop_IT,"ax",%progbits
 852              		.align	2
 853              		.global	HAL_ADCEx_InjectedStop_IT
 854              		.thumb
 855              		.thumb_func
 857              	HAL_ADCEx_InjectedStop_IT:
 858              	.LFB69:
 606:Drivers/STM32F1xx_HAL_Driver/Src/stm32f1xx_hal_adc_ex.c **** 
 607:Drivers/STM32F1xx_HAL_Driver/Src/stm32f1xx_hal_adc_ex.c **** /**
ARM GAS  C:\Users\Areg\AppData\Local\Temp\cc1Gg1eQ.s 			page 27


 608:Drivers/STM32F1xx_HAL_Driver/Src/stm32f1xx_hal_adc_ex.c ****   * @brief  Stop conversion of injected channels, disable interruption of 
 609:Drivers/STM32F1xx_HAL_Driver/Src/stm32f1xx_hal_adc_ex.c ****   *         end-of-conversion. Disable ADC peripheral if no regular conversion
 610:Drivers/STM32F1xx_HAL_Driver/Src/stm32f1xx_hal_adc_ex.c ****   *         is on going.
 611:Drivers/STM32F1xx_HAL_Driver/Src/stm32f1xx_hal_adc_ex.c ****   * @note   If ADC must be disabled and if conversion is on going on 
 612:Drivers/STM32F1xx_HAL_Driver/Src/stm32f1xx_hal_adc_ex.c ****   *         regular group, function HAL_ADC_Stop must be used to stop both
 613:Drivers/STM32F1xx_HAL_Driver/Src/stm32f1xx_hal_adc_ex.c ****   *         injected and regular groups, and disable the ADC.
 614:Drivers/STM32F1xx_HAL_Driver/Src/stm32f1xx_hal_adc_ex.c ****   * @note   If injected group mode auto-injection is enabled,
 615:Drivers/STM32F1xx_HAL_Driver/Src/stm32f1xx_hal_adc_ex.c ****   *         function HAL_ADC_Stop must be used.
 616:Drivers/STM32F1xx_HAL_Driver/Src/stm32f1xx_hal_adc_ex.c ****   * @param  hadc: ADC handle
 617:Drivers/STM32F1xx_HAL_Driver/Src/stm32f1xx_hal_adc_ex.c ****   * @retval None
 618:Drivers/STM32F1xx_HAL_Driver/Src/stm32f1xx_hal_adc_ex.c ****   */
 619:Drivers/STM32F1xx_HAL_Driver/Src/stm32f1xx_hal_adc_ex.c **** HAL_StatusTypeDef HAL_ADCEx_InjectedStop_IT(ADC_HandleTypeDef* hadc)
 620:Drivers/STM32F1xx_HAL_Driver/Src/stm32f1xx_hal_adc_ex.c **** {
 859              		.loc 1 620 0
 860              		.cfi_startproc
 861              		@ args = 0, pretend = 0, frame = 0
 862              		@ frame_needed = 0, uses_anonymous_args = 0
 863              	.LVL59:
 621:Drivers/STM32F1xx_HAL_Driver/Src/stm32f1xx_hal_adc_ex.c ****   HAL_StatusTypeDef tmp_hal_status = HAL_OK;
 622:Drivers/STM32F1xx_HAL_Driver/Src/stm32f1xx_hal_adc_ex.c ****   
 623:Drivers/STM32F1xx_HAL_Driver/Src/stm32f1xx_hal_adc_ex.c ****   /* Check the parameters */
 624:Drivers/STM32F1xx_HAL_Driver/Src/stm32f1xx_hal_adc_ex.c ****   assert_param(IS_ADC_ALL_INSTANCE(hadc->Instance));
 625:Drivers/STM32F1xx_HAL_Driver/Src/stm32f1xx_hal_adc_ex.c **** 
 626:Drivers/STM32F1xx_HAL_Driver/Src/stm32f1xx_hal_adc_ex.c ****   /* Process locked */
 627:Drivers/STM32F1xx_HAL_Driver/Src/stm32f1xx_hal_adc_ex.c ****   __HAL_LOCK(hadc);
 864              		.loc 1 627 0
 865 0000 90F82430 		ldrb	r3, [r0, #36]	@ zero_extendqisi2
 866 0004 012B     		cmp	r3, #1
 867 0006 29D0     		beq	.L82
 620:Drivers/STM32F1xx_HAL_Driver/Src/stm32f1xx_hal_adc_ex.c ****   HAL_StatusTypeDef tmp_hal_status = HAL_OK;
 868              		.loc 1 620 0 discriminator 2
 869 0008 10B5     		push	{r4, lr}
 870              	.LCFI14:
 871              		.cfi_def_cfa_offset 8
 872              		.cfi_offset 4, -8
 873              		.cfi_offset 14, -4
 874 000a 0446     		mov	r4, r0
 875              		.loc 1 627 0 discriminator 2
 876 000c 0123     		movs	r3, #1
 877 000e 80F82430 		strb	r3, [r0, #36]
 628:Drivers/STM32F1xx_HAL_Driver/Src/stm32f1xx_hal_adc_ex.c ****     
 629:Drivers/STM32F1xx_HAL_Driver/Src/stm32f1xx_hal_adc_ex.c ****   /* Stop potential conversion and disable ADC peripheral                     */
 630:Drivers/STM32F1xx_HAL_Driver/Src/stm32f1xx_hal_adc_ex.c ****   /* Conditioned to:                                                          */
 631:Drivers/STM32F1xx_HAL_Driver/Src/stm32f1xx_hal_adc_ex.c ****   /* - No conversion on the other group (regular group) is intended to        */
 632:Drivers/STM32F1xx_HAL_Driver/Src/stm32f1xx_hal_adc_ex.c ****   /*   continue (injected and regular groups stop conversion and ADC disable  */
 633:Drivers/STM32F1xx_HAL_Driver/Src/stm32f1xx_hal_adc_ex.c ****   /*   are common)                                                            */
 634:Drivers/STM32F1xx_HAL_Driver/Src/stm32f1xx_hal_adc_ex.c ****   /* - In case of auto-injection mode, HAL_ADC_Stop must be used.             */ 
 635:Drivers/STM32F1xx_HAL_Driver/Src/stm32f1xx_hal_adc_ex.c ****   if(((hadc->State & HAL_ADC_STATE_REG_BUSY) == RESET)  &&
 878              		.loc 1 635 0 discriminator 2
 879 0012 836A     		ldr	r3, [r0, #40]
 880 0014 13F4807F 		tst	r3, #256
 881 0018 16D1     		bne	.L80
 636:Drivers/STM32F1xx_HAL_Driver/Src/stm32f1xx_hal_adc_ex.c ****      HAL_IS_BIT_CLR(hadc->Instance->CR1, ADC_CR1_JAUTO)   )
 882              		.loc 1 636 0 discriminator 1
 883 001a 0368     		ldr	r3, [r0]
 884 001c 5B68     		ldr	r3, [r3, #4]
 635:Drivers/STM32F1xx_HAL_Driver/Src/stm32f1xx_hal_adc_ex.c ****      HAL_IS_BIT_CLR(hadc->Instance->CR1, ADC_CR1_JAUTO)   )
ARM GAS  C:\Users\Areg\AppData\Local\Temp\cc1Gg1eQ.s 			page 28


 885              		.loc 1 635 0 discriminator 1
 886 001e 13F4806F 		tst	r3, #1024
 887 0022 11D1     		bne	.L80
 637:Drivers/STM32F1xx_HAL_Driver/Src/stm32f1xx_hal_adc_ex.c ****   {
 638:Drivers/STM32F1xx_HAL_Driver/Src/stm32f1xx_hal_adc_ex.c ****     /* Stop potential conversion on going, on regular and injected groups */
 639:Drivers/STM32F1xx_HAL_Driver/Src/stm32f1xx_hal_adc_ex.c ****     /* Disable ADC peripheral */
 640:Drivers/STM32F1xx_HAL_Driver/Src/stm32f1xx_hal_adc_ex.c ****     tmp_hal_status = ADC_ConversionStop_Disable(hadc);
 888              		.loc 1 640 0
 889 0024 FFF7FEFF 		bl	ADC_ConversionStop_Disable
 890              	.LVL60:
 641:Drivers/STM32F1xx_HAL_Driver/Src/stm32f1xx_hal_adc_ex.c ****     
 642:Drivers/STM32F1xx_HAL_Driver/Src/stm32f1xx_hal_adc_ex.c ****     /* Check if ADC is effectively disabled */
 643:Drivers/STM32F1xx_HAL_Driver/Src/stm32f1xx_hal_adc_ex.c ****     if (tmp_hal_status == HAL_OK)
 891              		.loc 1 643 0
 892 0028 0346     		mov	r3, r0
 893 002a 90B9     		cbnz	r0, .L81
 644:Drivers/STM32F1xx_HAL_Driver/Src/stm32f1xx_hal_adc_ex.c ****     {
 645:Drivers/STM32F1xx_HAL_Driver/Src/stm32f1xx_hal_adc_ex.c ****       /* Disable ADC end of conversion interrupt for injected channels */
 646:Drivers/STM32F1xx_HAL_Driver/Src/stm32f1xx_hal_adc_ex.c ****       __HAL_ADC_DISABLE_IT(hadc, ADC_IT_JEOC);
 894              		.loc 1 646 0
 895 002c 2168     		ldr	r1, [r4]
 896 002e 4A68     		ldr	r2, [r1, #4]
 897 0030 22F08002 		bic	r2, r2, #128
 898 0034 4A60     		str	r2, [r1, #4]
 647:Drivers/STM32F1xx_HAL_Driver/Src/stm32f1xx_hal_adc_ex.c ****       
 648:Drivers/STM32F1xx_HAL_Driver/Src/stm32f1xx_hal_adc_ex.c ****       /* Set ADC state */
 649:Drivers/STM32F1xx_HAL_Driver/Src/stm32f1xx_hal_adc_ex.c ****       ADC_STATE_CLR_SET(hadc->State,
 899              		.loc 1 649 0
 900 0036 A26A     		ldr	r2, [r4, #40]
 901 0038 22F48852 		bic	r2, r2, #4352
 902 003c 22F00102 		bic	r2, r2, #1
 903 0040 42F00102 		orr	r2, r2, #1
 904 0044 A262     		str	r2, [r4, #40]
 905 0046 04E0     		b	.L81
 906              	.LVL61:
 907              	.L80:
 650:Drivers/STM32F1xx_HAL_Driver/Src/stm32f1xx_hal_adc_ex.c ****                         HAL_ADC_STATE_REG_BUSY | HAL_ADC_STATE_INJ_BUSY,
 651:Drivers/STM32F1xx_HAL_Driver/Src/stm32f1xx_hal_adc_ex.c ****                         HAL_ADC_STATE_READY);
 652:Drivers/STM32F1xx_HAL_Driver/Src/stm32f1xx_hal_adc_ex.c ****     }
 653:Drivers/STM32F1xx_HAL_Driver/Src/stm32f1xx_hal_adc_ex.c ****   }
 654:Drivers/STM32F1xx_HAL_Driver/Src/stm32f1xx_hal_adc_ex.c ****   else
 655:Drivers/STM32F1xx_HAL_Driver/Src/stm32f1xx_hal_adc_ex.c ****   {
 656:Drivers/STM32F1xx_HAL_Driver/Src/stm32f1xx_hal_adc_ex.c ****     /* Update ADC state machine to error */
 657:Drivers/STM32F1xx_HAL_Driver/Src/stm32f1xx_hal_adc_ex.c ****     SET_BIT(hadc->State, HAL_ADC_STATE_ERROR_CONFIG);
 908              		.loc 1 657 0
 909 0048 A36A     		ldr	r3, [r4, #40]
 910 004a 43F02003 		orr	r3, r3, #32
 911 004e A362     		str	r3, [r4, #40]
 912              	.LVL62:
 658:Drivers/STM32F1xx_HAL_Driver/Src/stm32f1xx_hal_adc_ex.c ****       
 659:Drivers/STM32F1xx_HAL_Driver/Src/stm32f1xx_hal_adc_ex.c ****     tmp_hal_status = HAL_ERROR;
 913              		.loc 1 659 0
 914 0050 0123     		movs	r3, #1
 915              	.LVL63:
 916              	.L81:
 660:Drivers/STM32F1xx_HAL_Driver/Src/stm32f1xx_hal_adc_ex.c ****   }
 661:Drivers/STM32F1xx_HAL_Driver/Src/stm32f1xx_hal_adc_ex.c ****   
ARM GAS  C:\Users\Areg\AppData\Local\Temp\cc1Gg1eQ.s 			page 29


 662:Drivers/STM32F1xx_HAL_Driver/Src/stm32f1xx_hal_adc_ex.c ****   /* Process unlocked */
 663:Drivers/STM32F1xx_HAL_Driver/Src/stm32f1xx_hal_adc_ex.c ****   __HAL_UNLOCK(hadc);
 917              		.loc 1 663 0
 918 0052 0022     		movs	r2, #0
 919 0054 84F82420 		strb	r2, [r4, #36]
 664:Drivers/STM32F1xx_HAL_Driver/Src/stm32f1xx_hal_adc_ex.c ****   
 665:Drivers/STM32F1xx_HAL_Driver/Src/stm32f1xx_hal_adc_ex.c ****   /* Return function status */
 666:Drivers/STM32F1xx_HAL_Driver/Src/stm32f1xx_hal_adc_ex.c ****   return tmp_hal_status;
 920              		.loc 1 666 0
 921 0058 1846     		mov	r0, r3
 922 005a 10BD     		pop	{r4, pc}
 923              	.LVL64:
 924              	.L82:
 925              	.LCFI15:
 926              		.cfi_def_cfa_offset 0
 927              		.cfi_restore 4
 928              		.cfi_restore 14
 627:Drivers/STM32F1xx_HAL_Driver/Src/stm32f1xx_hal_adc_ex.c ****     
 929              		.loc 1 627 0
 930 005c 0220     		movs	r0, #2
 931              	.LVL65:
 932 005e 7047     		bx	lr
 933              		.cfi_endproc
 934              	.LFE69:
 936              		.section	.text.HAL_ADCEx_MultiModeStart_DMA,"ax",%progbits
 937              		.align	2
 938              		.global	HAL_ADCEx_MultiModeStart_DMA
 939              		.thumb
 940              		.thumb_func
 942              	HAL_ADCEx_MultiModeStart_DMA:
 943              	.LFB70:
 667:Drivers/STM32F1xx_HAL_Driver/Src/stm32f1xx_hal_adc_ex.c **** }
 668:Drivers/STM32F1xx_HAL_Driver/Src/stm32f1xx_hal_adc_ex.c **** 
 669:Drivers/STM32F1xx_HAL_Driver/Src/stm32f1xx_hal_adc_ex.c **** #if defined (STM32F103x6) || defined (STM32F103xB) || defined (STM32F105xC) || defined (STM32F107xC
 670:Drivers/STM32F1xx_HAL_Driver/Src/stm32f1xx_hal_adc_ex.c **** /**
 671:Drivers/STM32F1xx_HAL_Driver/Src/stm32f1xx_hal_adc_ex.c ****   * @brief  Enables ADC, starts conversion of regular group and transfers result
 672:Drivers/STM32F1xx_HAL_Driver/Src/stm32f1xx_hal_adc_ex.c ****   *         through DMA.
 673:Drivers/STM32F1xx_HAL_Driver/Src/stm32f1xx_hal_adc_ex.c ****   *         Multimode must have been previously configured using 
 674:Drivers/STM32F1xx_HAL_Driver/Src/stm32f1xx_hal_adc_ex.c ****   *         HAL_ADCEx_MultiModeConfigChannel() function.
 675:Drivers/STM32F1xx_HAL_Driver/Src/stm32f1xx_hal_adc_ex.c ****   *         Interruptions enabled in this function:
 676:Drivers/STM32F1xx_HAL_Driver/Src/stm32f1xx_hal_adc_ex.c ****   *          - DMA transfer complete
 677:Drivers/STM32F1xx_HAL_Driver/Src/stm32f1xx_hal_adc_ex.c ****   *          - DMA half transfer
 678:Drivers/STM32F1xx_HAL_Driver/Src/stm32f1xx_hal_adc_ex.c ****   *         Each of these interruptions has its dedicated callback function.
 679:Drivers/STM32F1xx_HAL_Driver/Src/stm32f1xx_hal_adc_ex.c ****   * @note:  On STM32F1 devices, ADC slave regular group must be configured 
 680:Drivers/STM32F1xx_HAL_Driver/Src/stm32f1xx_hal_adc_ex.c ****   *         with conversion trigger ADC_SOFTWARE_START.
 681:Drivers/STM32F1xx_HAL_Driver/Src/stm32f1xx_hal_adc_ex.c ****   * @note:  ADC slave can be enabled preliminarily using single-mode  
 682:Drivers/STM32F1xx_HAL_Driver/Src/stm32f1xx_hal_adc_ex.c ****   *         HAL_ADC_Start() function.
 683:Drivers/STM32F1xx_HAL_Driver/Src/stm32f1xx_hal_adc_ex.c ****   * @param  hadc: ADC handle of ADC master (handle of ADC slave must not be used)
 684:Drivers/STM32F1xx_HAL_Driver/Src/stm32f1xx_hal_adc_ex.c ****   * @param  pData: The destination Buffer address.
 685:Drivers/STM32F1xx_HAL_Driver/Src/stm32f1xx_hal_adc_ex.c ****   * @param  Length: The length of data to be transferred from ADC peripheral to memory.
 686:Drivers/STM32F1xx_HAL_Driver/Src/stm32f1xx_hal_adc_ex.c ****   * @retval None
 687:Drivers/STM32F1xx_HAL_Driver/Src/stm32f1xx_hal_adc_ex.c ****   */
 688:Drivers/STM32F1xx_HAL_Driver/Src/stm32f1xx_hal_adc_ex.c **** HAL_StatusTypeDef HAL_ADCEx_MultiModeStart_DMA(ADC_HandleTypeDef* hadc, uint32_t* pData, uint32_t L
 689:Drivers/STM32F1xx_HAL_Driver/Src/stm32f1xx_hal_adc_ex.c **** {
 944              		.loc 1 689 0
 945              		.cfi_startproc
 946              		@ args = 0, pretend = 0, frame = 48
ARM GAS  C:\Users\Areg\AppData\Local\Temp\cc1Gg1eQ.s 			page 30


 947              		@ frame_needed = 0, uses_anonymous_args = 0
 948              	.LVL66:
 949 0000 F0B5     		push	{r4, r5, r6, r7, lr}
 950              	.LCFI16:
 951              		.cfi_def_cfa_offset 20
 952              		.cfi_offset 4, -20
 953              		.cfi_offset 5, -16
 954              		.cfi_offset 6, -12
 955              		.cfi_offset 7, -8
 956              		.cfi_offset 14, -4
 957 0002 8DB0     		sub	sp, sp, #52
 958              	.LCFI17:
 959              		.cfi_def_cfa_offset 72
 960              	.LVL67:
 690:Drivers/STM32F1xx_HAL_Driver/Src/stm32f1xx_hal_adc_ex.c ****   HAL_StatusTypeDef tmp_hal_status = HAL_OK;
 691:Drivers/STM32F1xx_HAL_Driver/Src/stm32f1xx_hal_adc_ex.c ****   ADC_HandleTypeDef tmphadcSlave;
 692:Drivers/STM32F1xx_HAL_Driver/Src/stm32f1xx_hal_adc_ex.c **** 
 693:Drivers/STM32F1xx_HAL_Driver/Src/stm32f1xx_hal_adc_ex.c ****   /* Check the parameters */
 694:Drivers/STM32F1xx_HAL_Driver/Src/stm32f1xx_hal_adc_ex.c ****   assert_param(IS_ADC_MULTIMODE_MASTER_INSTANCE(hadc->Instance));
 695:Drivers/STM32F1xx_HAL_Driver/Src/stm32f1xx_hal_adc_ex.c ****   assert_param(IS_FUNCTIONAL_STATE(hadc->Init.ContinuousConvMode));
 696:Drivers/STM32F1xx_HAL_Driver/Src/stm32f1xx_hal_adc_ex.c ****   
 697:Drivers/STM32F1xx_HAL_Driver/Src/stm32f1xx_hal_adc_ex.c ****   /* Process locked */
 698:Drivers/STM32F1xx_HAL_Driver/Src/stm32f1xx_hal_adc_ex.c ****   __HAL_LOCK(hadc);
 961              		.loc 1 698 0
 962 0004 90F82440 		ldrb	r4, [r0, #36]	@ zero_extendqisi2
 963 0008 012C     		cmp	r4, #1
 964 000a 66D0     		beq	.L92
 965              		.loc 1 698 0 is_stmt 0 discriminator 2
 966 000c 0124     		movs	r4, #1
 967 000e 80F82440 		strb	r4, [r0, #36]
 699:Drivers/STM32F1xx_HAL_Driver/Src/stm32f1xx_hal_adc_ex.c **** 
 700:Drivers/STM32F1xx_HAL_Driver/Src/stm32f1xx_hal_adc_ex.c ****   /* Set a temporary handle of the ADC slave associated to the ADC master     */
 701:Drivers/STM32F1xx_HAL_Driver/Src/stm32f1xx_hal_adc_ex.c ****   ADC_MULTI_SLAVE(hadc, &tmphadcSlave);
 968              		.loc 1 701 0 is_stmt 1 discriminator 2
 969 0012 334C     		ldr	r4, .L94
 970 0014 0094     		str	r4, [sp]
 702:Drivers/STM32F1xx_HAL_Driver/Src/stm32f1xx_hal_adc_ex.c ****   
 703:Drivers/STM32F1xx_HAL_Driver/Src/stm32f1xx_hal_adc_ex.c ****   /* On STM32F1 devices, ADC slave regular group must be configured with      */
 704:Drivers/STM32F1xx_HAL_Driver/Src/stm32f1xx_hal_adc_ex.c ****   /* conversion trigger ADC_SOFTWARE_START.                                   */
 705:Drivers/STM32F1xx_HAL_Driver/Src/stm32f1xx_hal_adc_ex.c ****   /* Note: External trigger of ADC slave must be enabled, it is already done  */
 706:Drivers/STM32F1xx_HAL_Driver/Src/stm32f1xx_hal_adc_ex.c ****   /*       into function "HAL_ADC_Init()".                                    */
 707:Drivers/STM32F1xx_HAL_Driver/Src/stm32f1xx_hal_adc_ex.c ****   if(!ADC_IS_SOFTWARE_START_REGULAR(&tmphadcSlave))  
 971              		.loc 1 707 0 discriminator 2
 972 0016 A468     		ldr	r4, [r4, #8]
 973 0018 04F46024 		and	r4, r4, #917504
 974 001c B4F5602F 		cmp	r4, #917504
 975 0020 08D0     		beq	.L87
 708:Drivers/STM32F1xx_HAL_Driver/Src/stm32f1xx_hal_adc_ex.c ****   {
 709:Drivers/STM32F1xx_HAL_Driver/Src/stm32f1xx_hal_adc_ex.c ****     /* Update ADC state machine to error */
 710:Drivers/STM32F1xx_HAL_Driver/Src/stm32f1xx_hal_adc_ex.c ****     SET_BIT(hadc->State, HAL_ADC_STATE_ERROR_CONFIG);
 976              		.loc 1 710 0
 977 0022 836A     		ldr	r3, [r0, #40]
 978 0024 43F02003 		orr	r3, r3, #32
 979 0028 8362     		str	r3, [r0, #40]
 711:Drivers/STM32F1xx_HAL_Driver/Src/stm32f1xx_hal_adc_ex.c ****     
 712:Drivers/STM32F1xx_HAL_Driver/Src/stm32f1xx_hal_adc_ex.c ****     /* Process unlocked */
 713:Drivers/STM32F1xx_HAL_Driver/Src/stm32f1xx_hal_adc_ex.c ****     __HAL_UNLOCK(hadc);
ARM GAS  C:\Users\Areg\AppData\Local\Temp\cc1Gg1eQ.s 			page 31


 980              		.loc 1 713 0
 981 002a 0023     		movs	r3, #0
 982 002c 80F82430 		strb	r3, [r0, #36]
 714:Drivers/STM32F1xx_HAL_Driver/Src/stm32f1xx_hal_adc_ex.c ****     
 715:Drivers/STM32F1xx_HAL_Driver/Src/stm32f1xx_hal_adc_ex.c ****     return HAL_ERROR;
 983              		.loc 1 715 0
 984 0030 0120     		movs	r0, #1
 985              	.LVL68:
 986 0032 53E0     		b	.L86
 987              	.LVL69:
 988              	.L87:
 989 0034 1646     		mov	r6, r2
 990 0036 0D46     		mov	r5, r1
 991 0038 0746     		mov	r7, r0
 716:Drivers/STM32F1xx_HAL_Driver/Src/stm32f1xx_hal_adc_ex.c ****   }
 717:Drivers/STM32F1xx_HAL_Driver/Src/stm32f1xx_hal_adc_ex.c ****   
 718:Drivers/STM32F1xx_HAL_Driver/Src/stm32f1xx_hal_adc_ex.c ****   /* Enable the ADC peripherals: master and slave (in case if not already     */
 719:Drivers/STM32F1xx_HAL_Driver/Src/stm32f1xx_hal_adc_ex.c ****   /* enabled previously)                                                      */
 720:Drivers/STM32F1xx_HAL_Driver/Src/stm32f1xx_hal_adc_ex.c ****   tmp_hal_status = ADC_Enable(hadc);
 992              		.loc 1 720 0
 993 003a FFF7FEFF 		bl	ADC_Enable
 994              	.LVL70:
 721:Drivers/STM32F1xx_HAL_Driver/Src/stm32f1xx_hal_adc_ex.c ****   if (tmp_hal_status == HAL_OK)
 995              		.loc 1 721 0
 996 003e 0446     		mov	r4, r0
 997 0040 18B9     		cbnz	r0, .L88
 722:Drivers/STM32F1xx_HAL_Driver/Src/stm32f1xx_hal_adc_ex.c ****   {
 723:Drivers/STM32F1xx_HAL_Driver/Src/stm32f1xx_hal_adc_ex.c ****     tmp_hal_status = ADC_Enable(&tmphadcSlave);
 998              		.loc 1 723 0
 999 0042 6846     		mov	r0, sp
 1000              	.LVL71:
 1001 0044 FFF7FEFF 		bl	ADC_Enable
 1002              	.LVL72:
 1003 0048 0446     		mov	r4, r0
 1004              	.LVL73:
 1005              	.L88:
 724:Drivers/STM32F1xx_HAL_Driver/Src/stm32f1xx_hal_adc_ex.c ****   }
 725:Drivers/STM32F1xx_HAL_Driver/Src/stm32f1xx_hal_adc_ex.c ****   
 726:Drivers/STM32F1xx_HAL_Driver/Src/stm32f1xx_hal_adc_ex.c ****   /* Start conversion if all ADCs of multimode are effectively enabled */
 727:Drivers/STM32F1xx_HAL_Driver/Src/stm32f1xx_hal_adc_ex.c ****   if (tmp_hal_status == HAL_OK)
 1006              		.loc 1 727 0
 1007 004a 002C     		cmp	r4, #0
 1008 004c 40D1     		bne	.L89
 728:Drivers/STM32F1xx_HAL_Driver/Src/stm32f1xx_hal_adc_ex.c ****   {
 729:Drivers/STM32F1xx_HAL_Driver/Src/stm32f1xx_hal_adc_ex.c ****     /* Set ADC state (ADC master)                                             */
 730:Drivers/STM32F1xx_HAL_Driver/Src/stm32f1xx_hal_adc_ex.c ****     /* - Clear state bitfield related to regular group conversion results     */
 731:Drivers/STM32F1xx_HAL_Driver/Src/stm32f1xx_hal_adc_ex.c ****     /* - Set state bitfield related to regular operation                      */
 732:Drivers/STM32F1xx_HAL_Driver/Src/stm32f1xx_hal_adc_ex.c ****     ADC_STATE_CLR_SET(hadc->State,
 1009              		.loc 1 732 0
 1010 004e BA6A     		ldr	r2, [r7, #40]
 1011 0050 244B     		ldr	r3, .L94+4
 1012 0052 1340     		ands	r3, r3, r2
 1013 0054 43F48073 		orr	r3, r3, #256
 1014 0058 BB62     		str	r3, [r7, #40]
 733:Drivers/STM32F1xx_HAL_Driver/Src/stm32f1xx_hal_adc_ex.c ****                       HAL_ADC_STATE_READY | HAL_ADC_STATE_REG_EOC | HAL_ADC_STATE_MULTIMODE_SLAVE,
 734:Drivers/STM32F1xx_HAL_Driver/Src/stm32f1xx_hal_adc_ex.c ****                       HAL_ADC_STATE_REG_BUSY);
 735:Drivers/STM32F1xx_HAL_Driver/Src/stm32f1xx_hal_adc_ex.c ****       
ARM GAS  C:\Users\Areg\AppData\Local\Temp\cc1Gg1eQ.s 			page 32


 736:Drivers/STM32F1xx_HAL_Driver/Src/stm32f1xx_hal_adc_ex.c ****     /* If conversions on group regular are also triggering group injected,    */
 737:Drivers/STM32F1xx_HAL_Driver/Src/stm32f1xx_hal_adc_ex.c ****     /* update ADC state.                                                      */
 738:Drivers/STM32F1xx_HAL_Driver/Src/stm32f1xx_hal_adc_ex.c ****     if (READ_BIT(hadc->Instance->CR1, ADC_CR1_JAUTO) != RESET)
 1015              		.loc 1 738 0
 1016 005a 3B68     		ldr	r3, [r7]
 1017 005c 5B68     		ldr	r3, [r3, #4]
 1018 005e 13F4806F 		tst	r3, #1024
 1019 0062 05D0     		beq	.L90
 739:Drivers/STM32F1xx_HAL_Driver/Src/stm32f1xx_hal_adc_ex.c ****     {
 740:Drivers/STM32F1xx_HAL_Driver/Src/stm32f1xx_hal_adc_ex.c ****       ADC_STATE_CLR_SET(hadc->State, HAL_ADC_STATE_INJ_EOC, HAL_ADC_STATE_INJ_BUSY);  
 1020              		.loc 1 740 0
 1021 0064 BB6A     		ldr	r3, [r7, #40]
 1022 0066 23F44053 		bic	r3, r3, #12288
 1023 006a 43F48053 		orr	r3, r3, #4096
 1024 006e BB62     		str	r3, [r7, #40]
 1025              	.L90:
 741:Drivers/STM32F1xx_HAL_Driver/Src/stm32f1xx_hal_adc_ex.c ****     }
 742:Drivers/STM32F1xx_HAL_Driver/Src/stm32f1xx_hal_adc_ex.c ****     
 743:Drivers/STM32F1xx_HAL_Driver/Src/stm32f1xx_hal_adc_ex.c ****     /* Process unlocked */
 744:Drivers/STM32F1xx_HAL_Driver/Src/stm32f1xx_hal_adc_ex.c ****     /* Unlock before starting ADC conversions: in case of potential           */
 745:Drivers/STM32F1xx_HAL_Driver/Src/stm32f1xx_hal_adc_ex.c ****     /* interruption, to let the process to ADC IRQ Handler.                   */
 746:Drivers/STM32F1xx_HAL_Driver/Src/stm32f1xx_hal_adc_ex.c ****     __HAL_UNLOCK(hadc);
 1026              		.loc 1 746 0
 1027 0070 0023     		movs	r3, #0
 1028 0072 87F82430 		strb	r3, [r7, #36]
 747:Drivers/STM32F1xx_HAL_Driver/Src/stm32f1xx_hal_adc_ex.c ****     
 748:Drivers/STM32F1xx_HAL_Driver/Src/stm32f1xx_hal_adc_ex.c ****     /* Set ADC error code to none */
 749:Drivers/STM32F1xx_HAL_Driver/Src/stm32f1xx_hal_adc_ex.c ****     ADC_CLEAR_ERRORCODE(hadc);
 1029              		.loc 1 749 0
 1030 0076 FB62     		str	r3, [r7, #44]
 750:Drivers/STM32F1xx_HAL_Driver/Src/stm32f1xx_hal_adc_ex.c ****     
 751:Drivers/STM32F1xx_HAL_Driver/Src/stm32f1xx_hal_adc_ex.c ****     
 752:Drivers/STM32F1xx_HAL_Driver/Src/stm32f1xx_hal_adc_ex.c ****     /* Set the DMA transfer complete callback */
 753:Drivers/STM32F1xx_HAL_Driver/Src/stm32f1xx_hal_adc_ex.c ****     hadc->DMA_Handle->XferCpltCallback = ADC_DMAConvCplt;
 1031              		.loc 1 753 0
 1032 0078 3B6A     		ldr	r3, [r7, #32]
 1033 007a 1B4A     		ldr	r2, .L94+8
 1034 007c 9A62     		str	r2, [r3, #40]
 754:Drivers/STM32F1xx_HAL_Driver/Src/stm32f1xx_hal_adc_ex.c ****        
 755:Drivers/STM32F1xx_HAL_Driver/Src/stm32f1xx_hal_adc_ex.c ****     /* Set the DMA half transfer complete callback */
 756:Drivers/STM32F1xx_HAL_Driver/Src/stm32f1xx_hal_adc_ex.c ****     hadc->DMA_Handle->XferHalfCpltCallback = ADC_DMAHalfConvCplt;
 1035              		.loc 1 756 0
 1036 007e 3B6A     		ldr	r3, [r7, #32]
 1037 0080 1A4A     		ldr	r2, .L94+12
 1038 0082 DA62     		str	r2, [r3, #44]
 757:Drivers/STM32F1xx_HAL_Driver/Src/stm32f1xx_hal_adc_ex.c ****     
 758:Drivers/STM32F1xx_HAL_Driver/Src/stm32f1xx_hal_adc_ex.c ****     /* Set the DMA error callback */
 759:Drivers/STM32F1xx_HAL_Driver/Src/stm32f1xx_hal_adc_ex.c ****     hadc->DMA_Handle->XferErrorCallback = ADC_DMAError;
 1039              		.loc 1 759 0
 1040 0084 3B6A     		ldr	r3, [r7, #32]
 1041 0086 1A4A     		ldr	r2, .L94+16
 1042 0088 1A63     		str	r2, [r3, #48]
 760:Drivers/STM32F1xx_HAL_Driver/Src/stm32f1xx_hal_adc_ex.c **** 
 761:Drivers/STM32F1xx_HAL_Driver/Src/stm32f1xx_hal_adc_ex.c ****     
 762:Drivers/STM32F1xx_HAL_Driver/Src/stm32f1xx_hal_adc_ex.c ****     /* Manage ADC and DMA start: ADC overrun interruption, DMA start, ADC     */
 763:Drivers/STM32F1xx_HAL_Driver/Src/stm32f1xx_hal_adc_ex.c ****     /* start (in case of SW start):                                           */
 764:Drivers/STM32F1xx_HAL_Driver/Src/stm32f1xx_hal_adc_ex.c ****     
ARM GAS  C:\Users\Areg\AppData\Local\Temp\cc1Gg1eQ.s 			page 33


 765:Drivers/STM32F1xx_HAL_Driver/Src/stm32f1xx_hal_adc_ex.c ****     /* Clear regular group conversion flag and overrun flag */
 766:Drivers/STM32F1xx_HAL_Driver/Src/stm32f1xx_hal_adc_ex.c ****     /* (To ensure of no unknown state from potential previous ADC operations) */
 767:Drivers/STM32F1xx_HAL_Driver/Src/stm32f1xx_hal_adc_ex.c ****     __HAL_ADC_CLEAR_FLAG(hadc, ADC_FLAG_EOC);
 1043              		.loc 1 767 0
 1044 008a 3B68     		ldr	r3, [r7]
 1045 008c 6FF00202 		mvn	r2, #2
 1046 0090 1A60     		str	r2, [r3]
 768:Drivers/STM32F1xx_HAL_Driver/Src/stm32f1xx_hal_adc_ex.c ****     
 769:Drivers/STM32F1xx_HAL_Driver/Src/stm32f1xx_hal_adc_ex.c ****     /* Enable ADC DMA mode of ADC master */
 770:Drivers/STM32F1xx_HAL_Driver/Src/stm32f1xx_hal_adc_ex.c ****     SET_BIT(hadc->Instance->CR2, ADC_CR2_DMA);
 1047              		.loc 1 770 0
 1048 0092 3A68     		ldr	r2, [r7]
 1049 0094 9368     		ldr	r3, [r2, #8]
 1050 0096 43F48073 		orr	r3, r3, #256
 1051 009a 9360     		str	r3, [r2, #8]
 771:Drivers/STM32F1xx_HAL_Driver/Src/stm32f1xx_hal_adc_ex.c ****     
 772:Drivers/STM32F1xx_HAL_Driver/Src/stm32f1xx_hal_adc_ex.c ****     /* Start the DMA channel */
 773:Drivers/STM32F1xx_HAL_Driver/Src/stm32f1xx_hal_adc_ex.c ****     HAL_DMA_Start_IT(hadc->DMA_Handle, (uint32_t)&hadc->Instance->DR, (uint32_t)pData, Length);
 1052              		.loc 1 773 0
 1053 009c 3968     		ldr	r1, [r7]
 1054 009e 3346     		mov	r3, r6
 1055 00a0 2A46     		mov	r2, r5
 1056 00a2 4C31     		adds	r1, r1, #76
 1057 00a4 386A     		ldr	r0, [r7, #32]
 1058 00a6 FFF7FEFF 		bl	HAL_DMA_Start_IT
 1059              	.LVL74:
 774:Drivers/STM32F1xx_HAL_Driver/Src/stm32f1xx_hal_adc_ex.c ****     
 775:Drivers/STM32F1xx_HAL_Driver/Src/stm32f1xx_hal_adc_ex.c ****     /* Start conversion of regular group if software start has been selected. */
 776:Drivers/STM32F1xx_HAL_Driver/Src/stm32f1xx_hal_adc_ex.c ****     /* If external trigger has been selected, conversion will start at next   */
 777:Drivers/STM32F1xx_HAL_Driver/Src/stm32f1xx_hal_adc_ex.c ****     /* trigger event.                                                         */
 778:Drivers/STM32F1xx_HAL_Driver/Src/stm32f1xx_hal_adc_ex.c ****     /* Note: Alternate trigger for single conversion could be to force an     */
 779:Drivers/STM32F1xx_HAL_Driver/Src/stm32f1xx_hal_adc_ex.c ****     /*       additional set of bit ADON "hadc->Instance->CR2 |= ADC_CR2_ADON;"*/
 780:Drivers/STM32F1xx_HAL_Driver/Src/stm32f1xx_hal_adc_ex.c ****     if (ADC_IS_SOFTWARE_START_REGULAR(hadc))
 1060              		.loc 1 780 0
 1061 00aa 3B68     		ldr	r3, [r7]
 1062 00ac 9A68     		ldr	r2, [r3, #8]
 1063 00ae 02F46022 		and	r2, r2, #917504
 1064 00b2 B2F5602F 		cmp	r2, #917504
 1065 00b6 05D1     		bne	.L91
 781:Drivers/STM32F1xx_HAL_Driver/Src/stm32f1xx_hal_adc_ex.c ****     {
 782:Drivers/STM32F1xx_HAL_Driver/Src/stm32f1xx_hal_adc_ex.c ****       /* Start ADC conversion on regular group with SW start */
 783:Drivers/STM32F1xx_HAL_Driver/Src/stm32f1xx_hal_adc_ex.c ****       SET_BIT(hadc->Instance->CR2, (ADC_CR2_SWSTART | ADC_CR2_EXTTRIG));
 1066              		.loc 1 783 0
 1067 00b8 9A68     		ldr	r2, [r3, #8]
 1068 00ba 42F4A002 		orr	r2, r2, #5242880
 1069 00be 9A60     		str	r2, [r3, #8]
 784:Drivers/STM32F1xx_HAL_Driver/Src/stm32f1xx_hal_adc_ex.c ****     }
 785:Drivers/STM32F1xx_HAL_Driver/Src/stm32f1xx_hal_adc_ex.c ****     else
 786:Drivers/STM32F1xx_HAL_Driver/Src/stm32f1xx_hal_adc_ex.c ****     {
 787:Drivers/STM32F1xx_HAL_Driver/Src/stm32f1xx_hal_adc_ex.c ****       /* Start ADC conversion on regular group with external trigger */
 788:Drivers/STM32F1xx_HAL_Driver/Src/stm32f1xx_hal_adc_ex.c ****       SET_BIT(hadc->Instance->CR2, ADC_CR2_EXTTRIG);
 789:Drivers/STM32F1xx_HAL_Driver/Src/stm32f1xx_hal_adc_ex.c ****     }
 790:Drivers/STM32F1xx_HAL_Driver/Src/stm32f1xx_hal_adc_ex.c ****   }
 791:Drivers/STM32F1xx_HAL_Driver/Src/stm32f1xx_hal_adc_ex.c ****   else
 792:Drivers/STM32F1xx_HAL_Driver/Src/stm32f1xx_hal_adc_ex.c ****   {
 793:Drivers/STM32F1xx_HAL_Driver/Src/stm32f1xx_hal_adc_ex.c ****     /* Process unlocked */
 794:Drivers/STM32F1xx_HAL_Driver/Src/stm32f1xx_hal_adc_ex.c ****     __HAL_UNLOCK(hadc);
ARM GAS  C:\Users\Areg\AppData\Local\Temp\cc1Gg1eQ.s 			page 34


 795:Drivers/STM32F1xx_HAL_Driver/Src/stm32f1xx_hal_adc_ex.c ****   }
 796:Drivers/STM32F1xx_HAL_Driver/Src/stm32f1xx_hal_adc_ex.c ****   
 797:Drivers/STM32F1xx_HAL_Driver/Src/stm32f1xx_hal_adc_ex.c ****   /* Return function status */
 798:Drivers/STM32F1xx_HAL_Driver/Src/stm32f1xx_hal_adc_ex.c ****   return tmp_hal_status;
 1070              		.loc 1 798 0
 1071 00c0 2046     		mov	r0, r4
 1072 00c2 0BE0     		b	.L86
 1073              	.L91:
 788:Drivers/STM32F1xx_HAL_Driver/Src/stm32f1xx_hal_adc_ex.c ****     }
 1074              		.loc 1 788 0
 1075 00c4 9A68     		ldr	r2, [r3, #8]
 1076 00c6 42F48012 		orr	r2, r2, #1048576
 1077 00ca 9A60     		str	r2, [r3, #8]
 1078              		.loc 1 798 0
 1079 00cc 2046     		mov	r0, r4
 1080 00ce 05E0     		b	.L86
 1081              	.L89:
 794:Drivers/STM32F1xx_HAL_Driver/Src/stm32f1xx_hal_adc_ex.c ****   }
 1082              		.loc 1 794 0
 1083 00d0 0023     		movs	r3, #0
 1084 00d2 87F82430 		strb	r3, [r7, #36]
 1085              		.loc 1 798 0
 1086 00d6 2046     		mov	r0, r4
 1087 00d8 00E0     		b	.L86
 1088              	.LVL75:
 1089              	.L92:
 698:Drivers/STM32F1xx_HAL_Driver/Src/stm32f1xx_hal_adc_ex.c **** 
 1090              		.loc 1 698 0
 1091 00da 0220     		movs	r0, #2
 1092              	.LVL76:
 1093              	.L86:
 799:Drivers/STM32F1xx_HAL_Driver/Src/stm32f1xx_hal_adc_ex.c **** }
 1094              		.loc 1 799 0
 1095 00dc 0DB0     		add	sp, sp, #52
 1096              	.LCFI18:
 1097              		.cfi_def_cfa_offset 20
 1098              		@ sp needed
 1099 00de F0BD     		pop	{r4, r5, r6, r7, pc}
 1100              	.L95:
 1101              		.align	2
 1102              	.L94:
 1103 00e0 00280140 		.word	1073817600
 1104 00e4 FEFCEFFF 		.word	-1049346
 1105 00e8 00000000 		.word	ADC_DMAConvCplt
 1106 00ec 00000000 		.word	ADC_DMAHalfConvCplt
 1107 00f0 00000000 		.word	ADC_DMAError
 1108              		.cfi_endproc
 1109              	.LFE70:
 1111              		.section	.text.HAL_ADCEx_MultiModeStop_DMA,"ax",%progbits
 1112              		.align	2
 1113              		.global	HAL_ADCEx_MultiModeStop_DMA
 1114              		.thumb
 1115              		.thumb_func
 1117              	HAL_ADCEx_MultiModeStop_DMA:
 1118              	.LFB71:
 800:Drivers/STM32F1xx_HAL_Driver/Src/stm32f1xx_hal_adc_ex.c **** 
 801:Drivers/STM32F1xx_HAL_Driver/Src/stm32f1xx_hal_adc_ex.c **** /**
ARM GAS  C:\Users\Areg\AppData\Local\Temp\cc1Gg1eQ.s 			page 35


 802:Drivers/STM32F1xx_HAL_Driver/Src/stm32f1xx_hal_adc_ex.c ****   * @brief  Stop ADC conversion of regular group (and injected channels in 
 803:Drivers/STM32F1xx_HAL_Driver/Src/stm32f1xx_hal_adc_ex.c ****   *         case of auto_injection mode), disable ADC DMA transfer, disable 
 804:Drivers/STM32F1xx_HAL_Driver/Src/stm32f1xx_hal_adc_ex.c ****   *         ADC peripheral.
 805:Drivers/STM32F1xx_HAL_Driver/Src/stm32f1xx_hal_adc_ex.c ****   * @note   Multimode is kept enabled after this function. To disable multimode 
 806:Drivers/STM32F1xx_HAL_Driver/Src/stm32f1xx_hal_adc_ex.c ****   *         (set with HAL_ADCEx_MultiModeConfigChannel(), ADC must be 
 807:Drivers/STM32F1xx_HAL_Driver/Src/stm32f1xx_hal_adc_ex.c ****   *         reinitialized using HAL_ADC_Init() or HAL_ADC_ReInit().
 808:Drivers/STM32F1xx_HAL_Driver/Src/stm32f1xx_hal_adc_ex.c ****   * @note   In case of DMA configured in circular mode, function 
 809:Drivers/STM32F1xx_HAL_Driver/Src/stm32f1xx_hal_adc_ex.c ****   *         HAL_ADC_Stop_DMA must be called after this function with handle of
 810:Drivers/STM32F1xx_HAL_Driver/Src/stm32f1xx_hal_adc_ex.c ****   *         ADC slave, to properly disable the DMA channel.
 811:Drivers/STM32F1xx_HAL_Driver/Src/stm32f1xx_hal_adc_ex.c ****   * @param  hadc: ADC handle of ADC master (handle of ADC slave must not be used)
 812:Drivers/STM32F1xx_HAL_Driver/Src/stm32f1xx_hal_adc_ex.c ****   * @retval None
 813:Drivers/STM32F1xx_HAL_Driver/Src/stm32f1xx_hal_adc_ex.c ****   */
 814:Drivers/STM32F1xx_HAL_Driver/Src/stm32f1xx_hal_adc_ex.c **** HAL_StatusTypeDef HAL_ADCEx_MultiModeStop_DMA(ADC_HandleTypeDef* hadc)
 815:Drivers/STM32F1xx_HAL_Driver/Src/stm32f1xx_hal_adc_ex.c **** {
 1119              		.loc 1 815 0
 1120              		.cfi_startproc
 1121              		@ args = 0, pretend = 0, frame = 48
 1122              		@ frame_needed = 0, uses_anonymous_args = 0
 1123              	.LVL77:
 816:Drivers/STM32F1xx_HAL_Driver/Src/stm32f1xx_hal_adc_ex.c ****   HAL_StatusTypeDef tmp_hal_status = HAL_OK;
 817:Drivers/STM32F1xx_HAL_Driver/Src/stm32f1xx_hal_adc_ex.c ****   ADC_HandleTypeDef tmphadcSlave;
 818:Drivers/STM32F1xx_HAL_Driver/Src/stm32f1xx_hal_adc_ex.c ****   
 819:Drivers/STM32F1xx_HAL_Driver/Src/stm32f1xx_hal_adc_ex.c ****   /* Check the parameters */
 820:Drivers/STM32F1xx_HAL_Driver/Src/stm32f1xx_hal_adc_ex.c ****   assert_param(IS_ADC_MULTIMODE_MASTER_INSTANCE(hadc->Instance));
 821:Drivers/STM32F1xx_HAL_Driver/Src/stm32f1xx_hal_adc_ex.c ****   
 822:Drivers/STM32F1xx_HAL_Driver/Src/stm32f1xx_hal_adc_ex.c ****   /* Process locked */
 823:Drivers/STM32F1xx_HAL_Driver/Src/stm32f1xx_hal_adc_ex.c ****   __HAL_LOCK(hadc);
 1124              		.loc 1 823 0
 1125 0000 90F82430 		ldrb	r3, [r0, #36]	@ zero_extendqisi2
 1126 0004 012B     		cmp	r3, #1
 1127 0006 34D0     		beq	.L100
 815:Drivers/STM32F1xx_HAL_Driver/Src/stm32f1xx_hal_adc_ex.c ****   HAL_StatusTypeDef tmp_hal_status = HAL_OK;
 1128              		.loc 1 815 0 discriminator 2
 1129 0008 10B5     		push	{r4, lr}
 1130              	.LCFI19:
 1131              		.cfi_def_cfa_offset 8
 1132              		.cfi_offset 4, -8
 1133              		.cfi_offset 14, -4
 1134 000a 8CB0     		sub	sp, sp, #48
 1135              	.LCFI20:
 1136              		.cfi_def_cfa_offset 56
 1137 000c 0446     		mov	r4, r0
 1138              		.loc 1 823 0 discriminator 2
 1139 000e 0123     		movs	r3, #1
 1140 0010 80F82430 		strb	r3, [r0, #36]
 824:Drivers/STM32F1xx_HAL_Driver/Src/stm32f1xx_hal_adc_ex.c ****   
 825:Drivers/STM32F1xx_HAL_Driver/Src/stm32f1xx_hal_adc_ex.c ****  
 826:Drivers/STM32F1xx_HAL_Driver/Src/stm32f1xx_hal_adc_ex.c ****   /* Stop potential conversion on going, on regular and injected groups */
 827:Drivers/STM32F1xx_HAL_Driver/Src/stm32f1xx_hal_adc_ex.c ****   /* Disable ADC master peripheral */
 828:Drivers/STM32F1xx_HAL_Driver/Src/stm32f1xx_hal_adc_ex.c ****   tmp_hal_status = ADC_ConversionStop_Disable(hadc);
 1141              		.loc 1 828 0 discriminator 2
 1142 0014 FFF7FEFF 		bl	ADC_ConversionStop_Disable
 1143              	.LVL78:
 829:Drivers/STM32F1xx_HAL_Driver/Src/stm32f1xx_hal_adc_ex.c ****   
 830:Drivers/STM32F1xx_HAL_Driver/Src/stm32f1xx_hal_adc_ex.c ****   /* Check if ADC is effectively disabled */
 831:Drivers/STM32F1xx_HAL_Driver/Src/stm32f1xx_hal_adc_ex.c ****   if(tmp_hal_status == HAL_OK)
 1144              		.loc 1 831 0 discriminator 2
ARM GAS  C:\Users\Areg\AppData\Local\Temp\cc1Gg1eQ.s 			page 36


 1145 0018 0346     		mov	r3, r0
 1146 001a 28BB     		cbnz	r0, .L98
 832:Drivers/STM32F1xx_HAL_Driver/Src/stm32f1xx_hal_adc_ex.c ****   {
 833:Drivers/STM32F1xx_HAL_Driver/Src/stm32f1xx_hal_adc_ex.c ****     /* Set a temporary handle of the ADC slave associated to the ADC master   */
 834:Drivers/STM32F1xx_HAL_Driver/Src/stm32f1xx_hal_adc_ex.c ****     ADC_MULTI_SLAVE(hadc, &tmphadcSlave);
 1147              		.loc 1 834 0
 1148 001c 0CA8     		add	r0, sp, #48
 1149              	.LVL79:
 1150 001e 174B     		ldr	r3, .L103
 1151 0020 40F8303D 		str	r3, [r0, #-48]!
 835:Drivers/STM32F1xx_HAL_Driver/Src/stm32f1xx_hal_adc_ex.c **** 
 836:Drivers/STM32F1xx_HAL_Driver/Src/stm32f1xx_hal_adc_ex.c ****     /* Disable ADC slave peripheral */
 837:Drivers/STM32F1xx_HAL_Driver/Src/stm32f1xx_hal_adc_ex.c ****     tmp_hal_status = ADC_ConversionStop_Disable(&tmphadcSlave);
 1152              		.loc 1 837 0
 1153 0024 FFF7FEFF 		bl	ADC_ConversionStop_Disable
 1154              	.LVL80:
 838:Drivers/STM32F1xx_HAL_Driver/Src/stm32f1xx_hal_adc_ex.c **** 
 839:Drivers/STM32F1xx_HAL_Driver/Src/stm32f1xx_hal_adc_ex.c ****     /* Check if ADC is effectively disabled */
 840:Drivers/STM32F1xx_HAL_Driver/Src/stm32f1xx_hal_adc_ex.c ****     if(tmp_hal_status != HAL_OK)
 1155              		.loc 1 840 0
 1156 0028 40B1     		cbz	r0, .L99
 841:Drivers/STM32F1xx_HAL_Driver/Src/stm32f1xx_hal_adc_ex.c ****     {
 842:Drivers/STM32F1xx_HAL_Driver/Src/stm32f1xx_hal_adc_ex.c ****       /* Update ADC state machine to error */
 843:Drivers/STM32F1xx_HAL_Driver/Src/stm32f1xx_hal_adc_ex.c ****       SET_BIT(hadc->State, HAL_ADC_STATE_ERROR_INTERNAL);
 1157              		.loc 1 843 0
 1158 002a A36A     		ldr	r3, [r4, #40]
 1159 002c 43F01003 		orr	r3, r3, #16
 1160 0030 A362     		str	r3, [r4, #40]
 844:Drivers/STM32F1xx_HAL_Driver/Src/stm32f1xx_hal_adc_ex.c **** 
 845:Drivers/STM32F1xx_HAL_Driver/Src/stm32f1xx_hal_adc_ex.c ****       /* Process unlocked */
 846:Drivers/STM32F1xx_HAL_Driver/Src/stm32f1xx_hal_adc_ex.c ****       __HAL_UNLOCK(hadc);
 1161              		.loc 1 846 0
 1162 0032 0023     		movs	r3, #0
 1163 0034 84F82430 		strb	r3, [r4, #36]
 847:Drivers/STM32F1xx_HAL_Driver/Src/stm32f1xx_hal_adc_ex.c **** 
 848:Drivers/STM32F1xx_HAL_Driver/Src/stm32f1xx_hal_adc_ex.c ****       return HAL_ERROR;
 1164              		.loc 1 848 0
 1165 0038 0120     		movs	r0, #1
 1166              	.LVL81:
 1167 003a 1CE0     		b	.L97
 1168              	.LVL82:
 1169              	.L99:
 849:Drivers/STM32F1xx_HAL_Driver/Src/stm32f1xx_hal_adc_ex.c ****     }
 850:Drivers/STM32F1xx_HAL_Driver/Src/stm32f1xx_hal_adc_ex.c **** 
 851:Drivers/STM32F1xx_HAL_Driver/Src/stm32f1xx_hal_adc_ex.c ****     /* Disable ADC DMA mode */
 852:Drivers/STM32F1xx_HAL_Driver/Src/stm32f1xx_hal_adc_ex.c ****     CLEAR_BIT(hadc->Instance->CR2, ADC_CR2_DMA);
 1170              		.loc 1 852 0
 1171 003c 2268     		ldr	r2, [r4]
 1172 003e 9368     		ldr	r3, [r2, #8]
 1173 0040 23F48073 		bic	r3, r3, #256
 1174 0044 9360     		str	r3, [r2, #8]
 853:Drivers/STM32F1xx_HAL_Driver/Src/stm32f1xx_hal_adc_ex.c ****     
 854:Drivers/STM32F1xx_HAL_Driver/Src/stm32f1xx_hal_adc_ex.c ****     /* Reset configuration of ADC DMA continuous request for dual mode */
 855:Drivers/STM32F1xx_HAL_Driver/Src/stm32f1xx_hal_adc_ex.c ****     CLEAR_BIT(hadc->Instance->CR1, ADC_CR1_DUALMOD);
 1175              		.loc 1 855 0
 1176 0046 2268     		ldr	r2, [r4]
 1177 0048 5368     		ldr	r3, [r2, #4]
ARM GAS  C:\Users\Areg\AppData\Local\Temp\cc1Gg1eQ.s 			page 37


 1178 004a 23F47023 		bic	r3, r3, #983040
 1179 004e 5360     		str	r3, [r2, #4]
 856:Drivers/STM32F1xx_HAL_Driver/Src/stm32f1xx_hal_adc_ex.c ****         
 857:Drivers/STM32F1xx_HAL_Driver/Src/stm32f1xx_hal_adc_ex.c ****     /* Disable the DMA channel (in case of DMA in circular mode or stop while */
 858:Drivers/STM32F1xx_HAL_Driver/Src/stm32f1xx_hal_adc_ex.c ****     /* while DMA transfer is on going)                                        */
 859:Drivers/STM32F1xx_HAL_Driver/Src/stm32f1xx_hal_adc_ex.c ****     tmp_hal_status = HAL_DMA_Abort(hadc->DMA_Handle);
 1180              		.loc 1 859 0
 1181 0050 206A     		ldr	r0, [r4, #32]
 1182              	.LVL83:
 1183 0052 FFF7FEFF 		bl	HAL_DMA_Abort
 1184              	.LVL84:
 1185 0056 0346     		mov	r3, r0
 1186              	.LVL85:
 860:Drivers/STM32F1xx_HAL_Driver/Src/stm32f1xx_hal_adc_ex.c **** 
 861:Drivers/STM32F1xx_HAL_Driver/Src/stm32f1xx_hal_adc_ex.c ****     /* Change ADC state (ADC master) */
 862:Drivers/STM32F1xx_HAL_Driver/Src/stm32f1xx_hal_adc_ex.c ****     ADC_STATE_CLR_SET(hadc->State,
 1187              		.loc 1 862 0
 1188 0058 A26A     		ldr	r2, [r4, #40]
 1189 005a 22F48852 		bic	r2, r2, #4352
 1190 005e 22F00102 		bic	r2, r2, #1
 1191 0062 42F00102 		orr	r2, r2, #1
 1192 0066 A262     		str	r2, [r4, #40]
 1193              	.LVL86:
 1194              	.L98:
 863:Drivers/STM32F1xx_HAL_Driver/Src/stm32f1xx_hal_adc_ex.c ****                       HAL_ADC_STATE_REG_BUSY | HAL_ADC_STATE_INJ_BUSY,
 864:Drivers/STM32F1xx_HAL_Driver/Src/stm32f1xx_hal_adc_ex.c ****                       HAL_ADC_STATE_READY);
 865:Drivers/STM32F1xx_HAL_Driver/Src/stm32f1xx_hal_adc_ex.c ****   }
 866:Drivers/STM32F1xx_HAL_Driver/Src/stm32f1xx_hal_adc_ex.c ****   
 867:Drivers/STM32F1xx_HAL_Driver/Src/stm32f1xx_hal_adc_ex.c ****   /* Process unlocked */
 868:Drivers/STM32F1xx_HAL_Driver/Src/stm32f1xx_hal_adc_ex.c ****   __HAL_UNLOCK(hadc);
 1195              		.loc 1 868 0
 1196 0068 0022     		movs	r2, #0
 1197 006a 84F82420 		strb	r2, [r4, #36]
 869:Drivers/STM32F1xx_HAL_Driver/Src/stm32f1xx_hal_adc_ex.c ****   
 870:Drivers/STM32F1xx_HAL_Driver/Src/stm32f1xx_hal_adc_ex.c ****   /* Return function status */
 871:Drivers/STM32F1xx_HAL_Driver/Src/stm32f1xx_hal_adc_ex.c ****   return tmp_hal_status;
 1198              		.loc 1 871 0
 1199 006e 1846     		mov	r0, r3
 1200 0070 01E0     		b	.L97
 1201              	.LVL87:
 1202              	.L100:
 1203              	.LCFI21:
 1204              		.cfi_def_cfa_offset 0
 1205              		.cfi_restore 4
 1206              		.cfi_restore 14
 823:Drivers/STM32F1xx_HAL_Driver/Src/stm32f1xx_hal_adc_ex.c ****   
 1207              		.loc 1 823 0
 1208 0072 0220     		movs	r0, #2
 1209              	.LVL88:
 1210 0074 7047     		bx	lr
 1211              	.LVL89:
 1212              	.L97:
 1213              	.LCFI22:
 1214              		.cfi_def_cfa_offset 56
 1215              		.cfi_offset 4, -8
 1216              		.cfi_offset 14, -4
 872:Drivers/STM32F1xx_HAL_Driver/Src/stm32f1xx_hal_adc_ex.c **** }
ARM GAS  C:\Users\Areg\AppData\Local\Temp\cc1Gg1eQ.s 			page 38


 1217              		.loc 1 872 0
 1218 0076 0CB0     		add	sp, sp, #48
 1219              	.LCFI23:
 1220              		.cfi_def_cfa_offset 8
 1221              		@ sp needed
 1222 0078 10BD     		pop	{r4, pc}
 1223              	.LVL90:
 1224              	.L104:
 1225 007a 00BF     		.align	2
 1226              	.L103:
 1227 007c 00280140 		.word	1073817600
 1228              		.cfi_endproc
 1229              	.LFE71:
 1231              		.section	.text.HAL_ADCEx_InjectedGetValue,"ax",%progbits
 1232              		.align	2
 1233              		.global	HAL_ADCEx_InjectedGetValue
 1234              		.thumb
 1235              		.thumb_func
 1237              	HAL_ADCEx_InjectedGetValue:
 1238              	.LFB72:
 873:Drivers/STM32F1xx_HAL_Driver/Src/stm32f1xx_hal_adc_ex.c **** #endif /* defined STM32F103x6 || defined STM32F103xB || defined STM32F105xC || defined STM32F107xC 
 874:Drivers/STM32F1xx_HAL_Driver/Src/stm32f1xx_hal_adc_ex.c **** 
 875:Drivers/STM32F1xx_HAL_Driver/Src/stm32f1xx_hal_adc_ex.c **** /**
 876:Drivers/STM32F1xx_HAL_Driver/Src/stm32f1xx_hal_adc_ex.c ****   * @brief  Get ADC injected group conversion result.
 877:Drivers/STM32F1xx_HAL_Driver/Src/stm32f1xx_hal_adc_ex.c ****   * @note   Reading register JDRx automatically clears ADC flag JEOC
 878:Drivers/STM32F1xx_HAL_Driver/Src/stm32f1xx_hal_adc_ex.c ****   *         (ADC group injected end of unitary conversion).
 879:Drivers/STM32F1xx_HAL_Driver/Src/stm32f1xx_hal_adc_ex.c ****   * @note   This function does not clear ADC flag JEOS 
 880:Drivers/STM32F1xx_HAL_Driver/Src/stm32f1xx_hal_adc_ex.c ****   *         (ADC group injected end of sequence conversion)
 881:Drivers/STM32F1xx_HAL_Driver/Src/stm32f1xx_hal_adc_ex.c ****   *         Occurrence of flag JEOS rising:
 882:Drivers/STM32F1xx_HAL_Driver/Src/stm32f1xx_hal_adc_ex.c ****   *          - If sequencer is composed of 1 rank, flag JEOS is equivalent
 883:Drivers/STM32F1xx_HAL_Driver/Src/stm32f1xx_hal_adc_ex.c ****   *            to flag JEOC.
 884:Drivers/STM32F1xx_HAL_Driver/Src/stm32f1xx_hal_adc_ex.c ****   *          - If sequencer is composed of several ranks, during the scan
 885:Drivers/STM32F1xx_HAL_Driver/Src/stm32f1xx_hal_adc_ex.c ****   *            sequence flag JEOC only is raised, at the end of the scan sequence
 886:Drivers/STM32F1xx_HAL_Driver/Src/stm32f1xx_hal_adc_ex.c ****   *            both flags JEOC and EOS are raised.
 887:Drivers/STM32F1xx_HAL_Driver/Src/stm32f1xx_hal_adc_ex.c ****   *         Flag JEOS must not be cleared by this function because
 888:Drivers/STM32F1xx_HAL_Driver/Src/stm32f1xx_hal_adc_ex.c ****   *         it would not be compliant with low power features
 889:Drivers/STM32F1xx_HAL_Driver/Src/stm32f1xx_hal_adc_ex.c ****   *         (feature low power auto-wait, not available on all STM32 families).
 890:Drivers/STM32F1xx_HAL_Driver/Src/stm32f1xx_hal_adc_ex.c ****   *         To clear this flag, either use function: 
 891:Drivers/STM32F1xx_HAL_Driver/Src/stm32f1xx_hal_adc_ex.c ****   *         in programming model IT: @ref HAL_ADC_IRQHandler(), in programming
 892:Drivers/STM32F1xx_HAL_Driver/Src/stm32f1xx_hal_adc_ex.c ****   *         model polling: @ref HAL_ADCEx_InjectedPollForConversion() 
 893:Drivers/STM32F1xx_HAL_Driver/Src/stm32f1xx_hal_adc_ex.c ****   *         or @ref __HAL_ADC_CLEAR_FLAG(&hadc, ADC_FLAG_JEOS).
 894:Drivers/STM32F1xx_HAL_Driver/Src/stm32f1xx_hal_adc_ex.c ****   * @param  hadc: ADC handle
 895:Drivers/STM32F1xx_HAL_Driver/Src/stm32f1xx_hal_adc_ex.c ****   * @param  InjectedRank: the converted ADC injected rank.
 896:Drivers/STM32F1xx_HAL_Driver/Src/stm32f1xx_hal_adc_ex.c ****   *          This parameter can be one of the following values:
 897:Drivers/STM32F1xx_HAL_Driver/Src/stm32f1xx_hal_adc_ex.c ****   *            @arg ADC_INJECTED_RANK_1: Injected Channel1 selected
 898:Drivers/STM32F1xx_HAL_Driver/Src/stm32f1xx_hal_adc_ex.c ****   *            @arg ADC_INJECTED_RANK_2: Injected Channel2 selected
 899:Drivers/STM32F1xx_HAL_Driver/Src/stm32f1xx_hal_adc_ex.c ****   *            @arg ADC_INJECTED_RANK_3: Injected Channel3 selected
 900:Drivers/STM32F1xx_HAL_Driver/Src/stm32f1xx_hal_adc_ex.c ****   *            @arg ADC_INJECTED_RANK_4: Injected Channel4 selected
 901:Drivers/STM32F1xx_HAL_Driver/Src/stm32f1xx_hal_adc_ex.c ****   * @retval ADC group injected conversion data
 902:Drivers/STM32F1xx_HAL_Driver/Src/stm32f1xx_hal_adc_ex.c ****   */
 903:Drivers/STM32F1xx_HAL_Driver/Src/stm32f1xx_hal_adc_ex.c **** uint32_t HAL_ADCEx_InjectedGetValue(ADC_HandleTypeDef* hadc, uint32_t InjectedRank)
 904:Drivers/STM32F1xx_HAL_Driver/Src/stm32f1xx_hal_adc_ex.c **** {
 1239              		.loc 1 904 0
 1240              		.cfi_startproc
 1241              		@ args = 0, pretend = 0, frame = 0
 1242              		@ frame_needed = 0, uses_anonymous_args = 0
 1243              		@ link register save eliminated.
ARM GAS  C:\Users\Areg\AppData\Local\Temp\cc1Gg1eQ.s 			page 39


 1244              	.LVL91:
 905:Drivers/STM32F1xx_HAL_Driver/Src/stm32f1xx_hal_adc_ex.c ****   uint32_t tmp_jdr = 0U;
 906:Drivers/STM32F1xx_HAL_Driver/Src/stm32f1xx_hal_adc_ex.c ****   
 907:Drivers/STM32F1xx_HAL_Driver/Src/stm32f1xx_hal_adc_ex.c ****   /* Check the parameters */
 908:Drivers/STM32F1xx_HAL_Driver/Src/stm32f1xx_hal_adc_ex.c ****   assert_param(IS_ADC_ALL_INSTANCE(hadc->Instance));
 909:Drivers/STM32F1xx_HAL_Driver/Src/stm32f1xx_hal_adc_ex.c ****   assert_param(IS_ADC_INJECTED_RANK(InjectedRank));
 910:Drivers/STM32F1xx_HAL_Driver/Src/stm32f1xx_hal_adc_ex.c ****   
 911:Drivers/STM32F1xx_HAL_Driver/Src/stm32f1xx_hal_adc_ex.c ****   /* Get ADC converted value */ 
 912:Drivers/STM32F1xx_HAL_Driver/Src/stm32f1xx_hal_adc_ex.c ****   switch(InjectedRank)
 1245              		.loc 1 912 0
 1246 0000 0329     		cmp	r1, #3
 1247 0002 07D0     		beq	.L107
 1248 0004 0429     		cmp	r1, #4
 1249 0006 02D0     		beq	.L108
 1250 0008 0229     		cmp	r1, #2
 1251 000a 09D1     		bne	.L111
 1252 000c 05E0     		b	.L109
 1253              	.L108:
 913:Drivers/STM32F1xx_HAL_Driver/Src/stm32f1xx_hal_adc_ex.c ****   {  
 914:Drivers/STM32F1xx_HAL_Driver/Src/stm32f1xx_hal_adc_ex.c ****     case ADC_INJECTED_RANK_4: 
 915:Drivers/STM32F1xx_HAL_Driver/Src/stm32f1xx_hal_adc_ex.c ****       tmp_jdr = hadc->Instance->JDR4;
 1254              		.loc 1 915 0
 1255 000e 0368     		ldr	r3, [r0]
 1256 0010 986C     		ldr	r0, [r3, #72]
 1257              	.LVL92:
 916:Drivers/STM32F1xx_HAL_Driver/Src/stm32f1xx_hal_adc_ex.c ****       break;
 1258              		.loc 1 916 0
 1259 0012 7047     		bx	lr
 1260              	.LVL93:
 1261              	.L107:
 917:Drivers/STM32F1xx_HAL_Driver/Src/stm32f1xx_hal_adc_ex.c ****     case ADC_INJECTED_RANK_3: 
 918:Drivers/STM32F1xx_HAL_Driver/Src/stm32f1xx_hal_adc_ex.c ****       tmp_jdr = hadc->Instance->JDR3;
 1262              		.loc 1 918 0
 1263 0014 0368     		ldr	r3, [r0]
 1264 0016 586C     		ldr	r0, [r3, #68]
 1265              	.LVL94:
 919:Drivers/STM32F1xx_HAL_Driver/Src/stm32f1xx_hal_adc_ex.c ****       break;
 1266              		.loc 1 919 0
 1267 0018 7047     		bx	lr
 1268              	.LVL95:
 1269              	.L109:
 920:Drivers/STM32F1xx_HAL_Driver/Src/stm32f1xx_hal_adc_ex.c ****     case ADC_INJECTED_RANK_2: 
 921:Drivers/STM32F1xx_HAL_Driver/Src/stm32f1xx_hal_adc_ex.c ****       tmp_jdr = hadc->Instance->JDR2;
 1270              		.loc 1 921 0
 1271 001a 0368     		ldr	r3, [r0]
 1272 001c 186C     		ldr	r0, [r3, #64]
 1273              	.LVL96:
 922:Drivers/STM32F1xx_HAL_Driver/Src/stm32f1xx_hal_adc_ex.c ****       break;
 1274              		.loc 1 922 0
 1275 001e 7047     		bx	lr
 1276              	.LVL97:
 1277              	.L111:
 923:Drivers/STM32F1xx_HAL_Driver/Src/stm32f1xx_hal_adc_ex.c ****     case ADC_INJECTED_RANK_1:
 924:Drivers/STM32F1xx_HAL_Driver/Src/stm32f1xx_hal_adc_ex.c ****     default:
 925:Drivers/STM32F1xx_HAL_Driver/Src/stm32f1xx_hal_adc_ex.c ****       tmp_jdr = hadc->Instance->JDR1;
 1278              		.loc 1 925 0
 1279 0020 0368     		ldr	r3, [r0]
ARM GAS  C:\Users\Areg\AppData\Local\Temp\cc1Gg1eQ.s 			page 40


 1280 0022 D86B     		ldr	r0, [r3, #60]
 1281              	.LVL98:
 926:Drivers/STM32F1xx_HAL_Driver/Src/stm32f1xx_hal_adc_ex.c ****       break;
 927:Drivers/STM32F1xx_HAL_Driver/Src/stm32f1xx_hal_adc_ex.c ****   }
 928:Drivers/STM32F1xx_HAL_Driver/Src/stm32f1xx_hal_adc_ex.c ****   
 929:Drivers/STM32F1xx_HAL_Driver/Src/stm32f1xx_hal_adc_ex.c ****   /* Return ADC converted value */ 
 930:Drivers/STM32F1xx_HAL_Driver/Src/stm32f1xx_hal_adc_ex.c ****   return tmp_jdr;
 931:Drivers/STM32F1xx_HAL_Driver/Src/stm32f1xx_hal_adc_ex.c **** }
 1282              		.loc 1 931 0
 1283 0024 7047     		bx	lr
 1284              		.cfi_endproc
 1285              	.LFE72:
 1287 0026 00BF     		.section	.text.HAL_ADCEx_MultiModeGetValue,"ax",%progbits
 1288              		.align	2
 1289              		.global	HAL_ADCEx_MultiModeGetValue
 1290              		.thumb
 1291              		.thumb_func
 1293              	HAL_ADCEx_MultiModeGetValue:
 1294              	.LFB73:
 932:Drivers/STM32F1xx_HAL_Driver/Src/stm32f1xx_hal_adc_ex.c **** 
 933:Drivers/STM32F1xx_HAL_Driver/Src/stm32f1xx_hal_adc_ex.c **** #if defined (STM32F103x6) || defined (STM32F103xB) || defined (STM32F105xC) || defined (STM32F107xC
 934:Drivers/STM32F1xx_HAL_Driver/Src/stm32f1xx_hal_adc_ex.c **** /**
 935:Drivers/STM32F1xx_HAL_Driver/Src/stm32f1xx_hal_adc_ex.c ****   * @brief  Returns the last ADC Master&Slave regular conversions results data
 936:Drivers/STM32F1xx_HAL_Driver/Src/stm32f1xx_hal_adc_ex.c ****   *         in the selected multi mode.
 937:Drivers/STM32F1xx_HAL_Driver/Src/stm32f1xx_hal_adc_ex.c ****   * @param  hadc: ADC handle of ADC master (handle of ADC slave must not be used)
 938:Drivers/STM32F1xx_HAL_Driver/Src/stm32f1xx_hal_adc_ex.c ****   * @retval The converted data value.
 939:Drivers/STM32F1xx_HAL_Driver/Src/stm32f1xx_hal_adc_ex.c ****   */
 940:Drivers/STM32F1xx_HAL_Driver/Src/stm32f1xx_hal_adc_ex.c **** uint32_t HAL_ADCEx_MultiModeGetValue(ADC_HandleTypeDef* hadc)
 941:Drivers/STM32F1xx_HAL_Driver/Src/stm32f1xx_hal_adc_ex.c **** {
 1295              		.loc 1 941 0
 1296              		.cfi_startproc
 1297              		@ args = 0, pretend = 0, frame = 0
 1298              		@ frame_needed = 0, uses_anonymous_args = 0
 1299              		@ link register save eliminated.
 1300              	.LVL99:
 942:Drivers/STM32F1xx_HAL_Driver/Src/stm32f1xx_hal_adc_ex.c ****   uint32_t tmpDR = 0U;
 943:Drivers/STM32F1xx_HAL_Driver/Src/stm32f1xx_hal_adc_ex.c ****   
 944:Drivers/STM32F1xx_HAL_Driver/Src/stm32f1xx_hal_adc_ex.c ****   /* Check the parameters */
 945:Drivers/STM32F1xx_HAL_Driver/Src/stm32f1xx_hal_adc_ex.c ****   assert_param(IS_ADC_MULTIMODE_MASTER_INSTANCE(hadc->Instance));
 946:Drivers/STM32F1xx_HAL_Driver/Src/stm32f1xx_hal_adc_ex.c ****   
 947:Drivers/STM32F1xx_HAL_Driver/Src/stm32f1xx_hal_adc_ex.c ****   /* Check the parameters */
 948:Drivers/STM32F1xx_HAL_Driver/Src/stm32f1xx_hal_adc_ex.c ****   assert_param(IS_ADC_ALL_INSTANCE(hadc->Instance));
 949:Drivers/STM32F1xx_HAL_Driver/Src/stm32f1xx_hal_adc_ex.c **** 
 950:Drivers/STM32F1xx_HAL_Driver/Src/stm32f1xx_hal_adc_ex.c ****   /* Note: EOC flag is not cleared here by software because automatically     */
 951:Drivers/STM32F1xx_HAL_Driver/Src/stm32f1xx_hal_adc_ex.c ****   /*       cleared by hardware when reading register DR.                      */
 952:Drivers/STM32F1xx_HAL_Driver/Src/stm32f1xx_hal_adc_ex.c ****   
 953:Drivers/STM32F1xx_HAL_Driver/Src/stm32f1xx_hal_adc_ex.c ****   /* On STM32F1 devices, ADC1 data register DR contains ADC2 conversions      */
 954:Drivers/STM32F1xx_HAL_Driver/Src/stm32f1xx_hal_adc_ex.c ****   /* only if ADC1 DMA mode is enabled.                                        */
 955:Drivers/STM32F1xx_HAL_Driver/Src/stm32f1xx_hal_adc_ex.c ****   tmpDR = hadc->Instance->DR;
 1301              		.loc 1 955 0
 1302 0000 0368     		ldr	r3, [r0]
 1303 0002 D86C     		ldr	r0, [r3, #76]
 1304              	.LVL100:
 956:Drivers/STM32F1xx_HAL_Driver/Src/stm32f1xx_hal_adc_ex.c **** 
 957:Drivers/STM32F1xx_HAL_Driver/Src/stm32f1xx_hal_adc_ex.c ****   if (HAL_IS_BIT_CLR(ADC1->CR2, ADC_CR2_DMA))
 1305              		.loc 1 957 0
 1306 0004 044B     		ldr	r3, .L114
ARM GAS  C:\Users\Areg\AppData\Local\Temp\cc1Gg1eQ.s 			page 41


 1307 0006 9B68     		ldr	r3, [r3, #8]
 1308 0008 13F4807F 		tst	r3, #256
 1309 000c 03D1     		bne	.L113
 958:Drivers/STM32F1xx_HAL_Driver/Src/stm32f1xx_hal_adc_ex.c ****   {
 959:Drivers/STM32F1xx_HAL_Driver/Src/stm32f1xx_hal_adc_ex.c ****     tmpDR |= (ADC2->DR << 16U);
 1310              		.loc 1 959 0
 1311 000e 034B     		ldr	r3, .L114+4
 1312 0010 DB6C     		ldr	r3, [r3, #76]
 1313 0012 40EA0340 		orr	r0, r0, r3, lsl #16
 1314              	.LVL101:
 1315              	.L113:
 960:Drivers/STM32F1xx_HAL_Driver/Src/stm32f1xx_hal_adc_ex.c ****   }
 961:Drivers/STM32F1xx_HAL_Driver/Src/stm32f1xx_hal_adc_ex.c ****     
 962:Drivers/STM32F1xx_HAL_Driver/Src/stm32f1xx_hal_adc_ex.c ****   /* Return ADC converted value */ 
 963:Drivers/STM32F1xx_HAL_Driver/Src/stm32f1xx_hal_adc_ex.c ****   return tmpDR;
 964:Drivers/STM32F1xx_HAL_Driver/Src/stm32f1xx_hal_adc_ex.c **** }
 1316              		.loc 1 964 0
 1317 0016 7047     		bx	lr
 1318              	.L115:
 1319              		.align	2
 1320              	.L114:
 1321 0018 00240140 		.word	1073816576
 1322 001c 00280140 		.word	1073817600
 1323              		.cfi_endproc
 1324              	.LFE73:
 1326              		.section	.text.HAL_ADCEx_InjectedConvCpltCallback,"ax",%progbits
 1327              		.align	2
 1328              		.weak	HAL_ADCEx_InjectedConvCpltCallback
 1329              		.thumb
 1330              		.thumb_func
 1332              	HAL_ADCEx_InjectedConvCpltCallback:
 1333              	.LFB74:
 965:Drivers/STM32F1xx_HAL_Driver/Src/stm32f1xx_hal_adc_ex.c **** #endif /* defined STM32F103x6 || defined STM32F103xB || defined STM32F105xC || defined STM32F107xC 
 966:Drivers/STM32F1xx_HAL_Driver/Src/stm32f1xx_hal_adc_ex.c **** 
 967:Drivers/STM32F1xx_HAL_Driver/Src/stm32f1xx_hal_adc_ex.c **** /**
 968:Drivers/STM32F1xx_HAL_Driver/Src/stm32f1xx_hal_adc_ex.c ****   * @brief  Injected conversion complete callback in non blocking mode 
 969:Drivers/STM32F1xx_HAL_Driver/Src/stm32f1xx_hal_adc_ex.c ****   * @param  hadc: ADC handle
 970:Drivers/STM32F1xx_HAL_Driver/Src/stm32f1xx_hal_adc_ex.c ****   * @retval None
 971:Drivers/STM32F1xx_HAL_Driver/Src/stm32f1xx_hal_adc_ex.c ****   */
 972:Drivers/STM32F1xx_HAL_Driver/Src/stm32f1xx_hal_adc_ex.c **** __weak void HAL_ADCEx_InjectedConvCpltCallback(ADC_HandleTypeDef* hadc)
 973:Drivers/STM32F1xx_HAL_Driver/Src/stm32f1xx_hal_adc_ex.c **** {
 1334              		.loc 1 973 0
 1335              		.cfi_startproc
 1336              		@ args = 0, pretend = 0, frame = 0
 1337              		@ frame_needed = 0, uses_anonymous_args = 0
 1338              		@ link register save eliminated.
 1339              	.LVL102:
 1340 0000 7047     		bx	lr
 1341              		.cfi_endproc
 1342              	.LFE74:
 1344 0002 00BF     		.section	.text.HAL_ADCEx_InjectedConfigChannel,"ax",%progbits
 1345              		.align	2
 1346              		.global	HAL_ADCEx_InjectedConfigChannel
 1347              		.thumb
 1348              		.thumb_func
 1350              	HAL_ADCEx_InjectedConfigChannel:
 1351              	.LFB75:
ARM GAS  C:\Users\Areg\AppData\Local\Temp\cc1Gg1eQ.s 			page 42


 974:Drivers/STM32F1xx_HAL_Driver/Src/stm32f1xx_hal_adc_ex.c ****   /* Prevent unused argument(s) compilation warning */
 975:Drivers/STM32F1xx_HAL_Driver/Src/stm32f1xx_hal_adc_ex.c ****   UNUSED(hadc);
 976:Drivers/STM32F1xx_HAL_Driver/Src/stm32f1xx_hal_adc_ex.c ****   /* NOTE : This function Should not be modified, when the callback is needed,
 977:Drivers/STM32F1xx_HAL_Driver/Src/stm32f1xx_hal_adc_ex.c ****             the HAL_ADCEx_InjectedConvCpltCallback could be implemented in the user file
 978:Drivers/STM32F1xx_HAL_Driver/Src/stm32f1xx_hal_adc_ex.c ****   */
 979:Drivers/STM32F1xx_HAL_Driver/Src/stm32f1xx_hal_adc_ex.c **** }
 980:Drivers/STM32F1xx_HAL_Driver/Src/stm32f1xx_hal_adc_ex.c **** 
 981:Drivers/STM32F1xx_HAL_Driver/Src/stm32f1xx_hal_adc_ex.c **** /**
 982:Drivers/STM32F1xx_HAL_Driver/Src/stm32f1xx_hal_adc_ex.c ****   * @}
 983:Drivers/STM32F1xx_HAL_Driver/Src/stm32f1xx_hal_adc_ex.c ****   */
 984:Drivers/STM32F1xx_HAL_Driver/Src/stm32f1xx_hal_adc_ex.c **** 
 985:Drivers/STM32F1xx_HAL_Driver/Src/stm32f1xx_hal_adc_ex.c **** /** @defgroup ADCEx_Exported_Functions_Group2 Extended Peripheral Control functions
 986:Drivers/STM32F1xx_HAL_Driver/Src/stm32f1xx_hal_adc_ex.c ****   * @brief    Extended Peripheral Control functions
 987:Drivers/STM32F1xx_HAL_Driver/Src/stm32f1xx_hal_adc_ex.c ****   *
 988:Drivers/STM32F1xx_HAL_Driver/Src/stm32f1xx_hal_adc_ex.c **** @verbatim   
 989:Drivers/STM32F1xx_HAL_Driver/Src/stm32f1xx_hal_adc_ex.c ****  ===============================================================================
 990:Drivers/STM32F1xx_HAL_Driver/Src/stm32f1xx_hal_adc_ex.c ****              ##### Peripheral Control functions #####
 991:Drivers/STM32F1xx_HAL_Driver/Src/stm32f1xx_hal_adc_ex.c ****  ===============================================================================  
 992:Drivers/STM32F1xx_HAL_Driver/Src/stm32f1xx_hal_adc_ex.c ****     [..]  This section provides functions allowing to:
 993:Drivers/STM32F1xx_HAL_Driver/Src/stm32f1xx_hal_adc_ex.c ****       (+) Configure channels on injected group
 994:Drivers/STM32F1xx_HAL_Driver/Src/stm32f1xx_hal_adc_ex.c ****       (+) Configure multimode
 995:Drivers/STM32F1xx_HAL_Driver/Src/stm32f1xx_hal_adc_ex.c **** 
 996:Drivers/STM32F1xx_HAL_Driver/Src/stm32f1xx_hal_adc_ex.c **** @endverbatim
 997:Drivers/STM32F1xx_HAL_Driver/Src/stm32f1xx_hal_adc_ex.c ****   * @{
 998:Drivers/STM32F1xx_HAL_Driver/Src/stm32f1xx_hal_adc_ex.c ****   */
 999:Drivers/STM32F1xx_HAL_Driver/Src/stm32f1xx_hal_adc_ex.c **** 
1000:Drivers/STM32F1xx_HAL_Driver/Src/stm32f1xx_hal_adc_ex.c **** /**
1001:Drivers/STM32F1xx_HAL_Driver/Src/stm32f1xx_hal_adc_ex.c ****   * @brief  Configures the ADC injected group and the selected channel to be
1002:Drivers/STM32F1xx_HAL_Driver/Src/stm32f1xx_hal_adc_ex.c ****   *         linked to the injected group.
1003:Drivers/STM32F1xx_HAL_Driver/Src/stm32f1xx_hal_adc_ex.c ****   * @note   Possibility to update parameters on the fly:
1004:Drivers/STM32F1xx_HAL_Driver/Src/stm32f1xx_hal_adc_ex.c ****   *         This function initializes injected group, following calls to this 
1005:Drivers/STM32F1xx_HAL_Driver/Src/stm32f1xx_hal_adc_ex.c ****   *         function can be used to reconfigure some parameters of structure
1006:Drivers/STM32F1xx_HAL_Driver/Src/stm32f1xx_hal_adc_ex.c ****   *         "ADC_InjectionConfTypeDef" on the fly, without reseting the ADC.
1007:Drivers/STM32F1xx_HAL_Driver/Src/stm32f1xx_hal_adc_ex.c ****   *         The setting of these parameters is conditioned to ADC state: 
1008:Drivers/STM32F1xx_HAL_Driver/Src/stm32f1xx_hal_adc_ex.c ****   *         this function must be called when ADC is not under conversion.
1009:Drivers/STM32F1xx_HAL_Driver/Src/stm32f1xx_hal_adc_ex.c ****   * @param  hadc: ADC handle
1010:Drivers/STM32F1xx_HAL_Driver/Src/stm32f1xx_hal_adc_ex.c ****   * @param  sConfigInjected: Structure of ADC injected group and ADC channel for
1011:Drivers/STM32F1xx_HAL_Driver/Src/stm32f1xx_hal_adc_ex.c ****   *         injected group.
1012:Drivers/STM32F1xx_HAL_Driver/Src/stm32f1xx_hal_adc_ex.c ****   * @retval None
1013:Drivers/STM32F1xx_HAL_Driver/Src/stm32f1xx_hal_adc_ex.c ****   */
1014:Drivers/STM32F1xx_HAL_Driver/Src/stm32f1xx_hal_adc_ex.c **** HAL_StatusTypeDef HAL_ADCEx_InjectedConfigChannel(ADC_HandleTypeDef* hadc, ADC_InjectionConfTypeDef
1015:Drivers/STM32F1xx_HAL_Driver/Src/stm32f1xx_hal_adc_ex.c **** {
 1352              		.loc 1 1015 0
 1353              		.cfi_startproc
 1354              		@ args = 0, pretend = 0, frame = 8
 1355              		@ frame_needed = 0, uses_anonymous_args = 0
 1356              		@ link register save eliminated.
 1357              	.LVL103:
 1358              		.loc 1 1015 0
 1359 0000 F0B4     		push	{r4, r5, r6, r7}
 1360              	.LCFI24:
 1361              		.cfi_def_cfa_offset 16
 1362              		.cfi_offset 4, -16
 1363              		.cfi_offset 5, -12
 1364              		.cfi_offset 6, -8
 1365              		.cfi_offset 7, -4
 1366 0002 82B0     		sub	sp, sp, #8
ARM GAS  C:\Users\Areg\AppData\Local\Temp\cc1Gg1eQ.s 			page 43


 1367              	.LCFI25:
 1368              		.cfi_def_cfa_offset 24
 1369              	.LVL104:
1016:Drivers/STM32F1xx_HAL_Driver/Src/stm32f1xx_hal_adc_ex.c ****   HAL_StatusTypeDef tmp_hal_status = HAL_OK;
1017:Drivers/STM32F1xx_HAL_Driver/Src/stm32f1xx_hal_adc_ex.c ****   __IO uint32_t wait_loop_index = 0U;
 1370              		.loc 1 1017 0
 1371 0004 0023     		movs	r3, #0
 1372 0006 0193     		str	r3, [sp, #4]
1018:Drivers/STM32F1xx_HAL_Driver/Src/stm32f1xx_hal_adc_ex.c ****   
1019:Drivers/STM32F1xx_HAL_Driver/Src/stm32f1xx_hal_adc_ex.c ****   /* Check the parameters */
1020:Drivers/STM32F1xx_HAL_Driver/Src/stm32f1xx_hal_adc_ex.c ****   assert_param(IS_ADC_ALL_INSTANCE(hadc->Instance));
1021:Drivers/STM32F1xx_HAL_Driver/Src/stm32f1xx_hal_adc_ex.c ****   assert_param(IS_ADC_CHANNEL(sConfigInjected->InjectedChannel));
1022:Drivers/STM32F1xx_HAL_Driver/Src/stm32f1xx_hal_adc_ex.c ****   assert_param(IS_ADC_SAMPLE_TIME(sConfigInjected->InjectedSamplingTime));
1023:Drivers/STM32F1xx_HAL_Driver/Src/stm32f1xx_hal_adc_ex.c ****   assert_param(IS_FUNCTIONAL_STATE(sConfigInjected->AutoInjectedConv));
1024:Drivers/STM32F1xx_HAL_Driver/Src/stm32f1xx_hal_adc_ex.c ****   assert_param(IS_ADC_EXTTRIGINJEC(sConfigInjected->ExternalTrigInjecConv));
1025:Drivers/STM32F1xx_HAL_Driver/Src/stm32f1xx_hal_adc_ex.c ****   assert_param(IS_ADC_RANGE(sConfigInjected->InjectedOffset));
1026:Drivers/STM32F1xx_HAL_Driver/Src/stm32f1xx_hal_adc_ex.c ****   
1027:Drivers/STM32F1xx_HAL_Driver/Src/stm32f1xx_hal_adc_ex.c ****   if(hadc->Init.ScanConvMode != ADC_SCAN_DISABLE)
1028:Drivers/STM32F1xx_HAL_Driver/Src/stm32f1xx_hal_adc_ex.c ****   {
1029:Drivers/STM32F1xx_HAL_Driver/Src/stm32f1xx_hal_adc_ex.c ****     assert_param(IS_ADC_INJECTED_RANK(sConfigInjected->InjectedRank));
1030:Drivers/STM32F1xx_HAL_Driver/Src/stm32f1xx_hal_adc_ex.c ****     assert_param(IS_ADC_INJECTED_NB_CONV(sConfigInjected->InjectedNbrOfConversion));
1031:Drivers/STM32F1xx_HAL_Driver/Src/stm32f1xx_hal_adc_ex.c ****     assert_param(IS_FUNCTIONAL_STATE(sConfigInjected->InjectedDiscontinuousConvMode));
1032:Drivers/STM32F1xx_HAL_Driver/Src/stm32f1xx_hal_adc_ex.c ****   }
1033:Drivers/STM32F1xx_HAL_Driver/Src/stm32f1xx_hal_adc_ex.c ****   
1034:Drivers/STM32F1xx_HAL_Driver/Src/stm32f1xx_hal_adc_ex.c ****   /* Process locked */
1035:Drivers/STM32F1xx_HAL_Driver/Src/stm32f1xx_hal_adc_ex.c ****   __HAL_LOCK(hadc);
 1373              		.loc 1 1035 0
 1374 0008 90F82430 		ldrb	r3, [r0, #36]	@ zero_extendqisi2
 1375 000c 012B     		cmp	r3, #1
 1376 000e 00F0FF80 		beq	.L142
 1377              		.loc 1 1035 0 is_stmt 0 discriminator 2
 1378 0012 0123     		movs	r3, #1
 1379 0014 80F82430 		strb	r3, [r0, #36]
1036:Drivers/STM32F1xx_HAL_Driver/Src/stm32f1xx_hal_adc_ex.c ****   
1037:Drivers/STM32F1xx_HAL_Driver/Src/stm32f1xx_hal_adc_ex.c ****   /* Configuration of injected group sequencer:                               */
1038:Drivers/STM32F1xx_HAL_Driver/Src/stm32f1xx_hal_adc_ex.c ****   /* - if scan mode is disabled, injected channels sequence length is set to  */
1039:Drivers/STM32F1xx_HAL_Driver/Src/stm32f1xx_hal_adc_ex.c ****   /*   0x00: 1 channel converted (channel on regular rank 1)                  */
1040:Drivers/STM32F1xx_HAL_Driver/Src/stm32f1xx_hal_adc_ex.c ****   /*   Parameter "InjectedNbrOfConversion" is discarded.                      */
1041:Drivers/STM32F1xx_HAL_Driver/Src/stm32f1xx_hal_adc_ex.c ****   /*   Note: Scan mode is present by hardware on this device and, if          */
1042:Drivers/STM32F1xx_HAL_Driver/Src/stm32f1xx_hal_adc_ex.c ****   /*   disabled, discards automatically nb of conversions. Anyway, nb of      */
1043:Drivers/STM32F1xx_HAL_Driver/Src/stm32f1xx_hal_adc_ex.c ****   /*   conversions is forced to 0x00 for alignment over all STM32 devices.    */
1044:Drivers/STM32F1xx_HAL_Driver/Src/stm32f1xx_hal_adc_ex.c ****   /* - if scan mode is enabled, injected channels sequence length is set to   */
1045:Drivers/STM32F1xx_HAL_Driver/Src/stm32f1xx_hal_adc_ex.c ****   /*   parameter "InjectedNbrOfConversion".                                   */
1046:Drivers/STM32F1xx_HAL_Driver/Src/stm32f1xx_hal_adc_ex.c ****   if (hadc->Init.ScanConvMode == ADC_SCAN_DISABLE)
 1380              		.loc 1 1046 0 is_stmt 1 discriminator 2
 1381 0018 8368     		ldr	r3, [r0, #8]
 1382 001a 93B9     		cbnz	r3, .L119
1047:Drivers/STM32F1xx_HAL_Driver/Src/stm32f1xx_hal_adc_ex.c ****   {
1048:Drivers/STM32F1xx_HAL_Driver/Src/stm32f1xx_hal_adc_ex.c ****     if (sConfigInjected->InjectedRank == ADC_INJECTED_RANK_1)
 1383              		.loc 1 1048 0
 1384 001c 4B68     		ldr	r3, [r1, #4]
 1385 001e 012B     		cmp	r3, #1
 1386 0020 09D1     		bne	.L120
1049:Drivers/STM32F1xx_HAL_Driver/Src/stm32f1xx_hal_adc_ex.c ****     {
1050:Drivers/STM32F1xx_HAL_Driver/Src/stm32f1xx_hal_adc_ex.c ****       /* Clear the old SQx bits for all injected ranks */
1051:Drivers/STM32F1xx_HAL_Driver/Src/stm32f1xx_hal_adc_ex.c ****       MODIFY_REG(hadc->Instance->JSQR                             ,
 1387              		.loc 1 1051 0
ARM GAS  C:\Users\Areg\AppData\Local\Temp\cc1Gg1eQ.s 			page 44


 1388 0022 0268     		ldr	r2, [r0]
 1389 0024 936B     		ldr	r3, [r2, #56]
 1390 0026 9B0D     		lsrs	r3, r3, #22
 1391 0028 9B05     		lsls	r3, r3, #22
 1392 002a 0C68     		ldr	r4, [r1]
 1393 002c 43EAC433 		orr	r3, r3, r4, lsl #15
 1394 0030 9363     		str	r3, [r2, #56]
1016:Drivers/STM32F1xx_HAL_Driver/Src/stm32f1xx_hal_adc_ex.c ****   __IO uint32_t wait_loop_index = 0U;
 1395              		.loc 1 1016 0
 1396 0032 0022     		movs	r2, #0
 1397 0034 2EE0     		b	.L121
 1398              	.L120:
1052:Drivers/STM32F1xx_HAL_Driver/Src/stm32f1xx_hal_adc_ex.c ****                  ADC_JSQR_JL   |
1053:Drivers/STM32F1xx_HAL_Driver/Src/stm32f1xx_hal_adc_ex.c ****                  ADC_JSQR_JSQ4 |
1054:Drivers/STM32F1xx_HAL_Driver/Src/stm32f1xx_hal_adc_ex.c ****                  ADC_JSQR_JSQ3 |
1055:Drivers/STM32F1xx_HAL_Driver/Src/stm32f1xx_hal_adc_ex.c ****                  ADC_JSQR_JSQ2 |
1056:Drivers/STM32F1xx_HAL_Driver/Src/stm32f1xx_hal_adc_ex.c ****                  ADC_JSQR_JSQ1                                    ,
1057:Drivers/STM32F1xx_HAL_Driver/Src/stm32f1xx_hal_adc_ex.c ****                  ADC_JSQR_RK_JL(sConfigInjected->InjectedChannel,
1058:Drivers/STM32F1xx_HAL_Driver/Src/stm32f1xx_hal_adc_ex.c ****                                   ADC_INJECTED_RANK_1,
1059:Drivers/STM32F1xx_HAL_Driver/Src/stm32f1xx_hal_adc_ex.c ****                                   0x01U));
1060:Drivers/STM32F1xx_HAL_Driver/Src/stm32f1xx_hal_adc_ex.c ****     }
1061:Drivers/STM32F1xx_HAL_Driver/Src/stm32f1xx_hal_adc_ex.c ****     /* If another injected rank than rank1 was intended to be set, and could  */
1062:Drivers/STM32F1xx_HAL_Driver/Src/stm32f1xx_hal_adc_ex.c ****     /* not due to ScanConvMode disabled, error is reported.                   */
1063:Drivers/STM32F1xx_HAL_Driver/Src/stm32f1xx_hal_adc_ex.c ****     else
1064:Drivers/STM32F1xx_HAL_Driver/Src/stm32f1xx_hal_adc_ex.c ****     {
1065:Drivers/STM32F1xx_HAL_Driver/Src/stm32f1xx_hal_adc_ex.c ****       /* Update ADC state machine to error */
1066:Drivers/STM32F1xx_HAL_Driver/Src/stm32f1xx_hal_adc_ex.c ****       SET_BIT(hadc->State, HAL_ADC_STATE_ERROR_CONFIG);
 1399              		.loc 1 1066 0
 1400 0036 836A     		ldr	r3, [r0, #40]
 1401 0038 43F02003 		orr	r3, r3, #32
 1402 003c 8362     		str	r3, [r0, #40]
 1403              	.LVL105:
1067:Drivers/STM32F1xx_HAL_Driver/Src/stm32f1xx_hal_adc_ex.c ****       
1068:Drivers/STM32F1xx_HAL_Driver/Src/stm32f1xx_hal_adc_ex.c ****       tmp_hal_status = HAL_ERROR;
 1404              		.loc 1 1068 0
 1405 003e 0122     		movs	r2, #1
 1406 0040 28E0     		b	.L121
 1407              	.LVL106:
 1408              	.L119:
1069:Drivers/STM32F1xx_HAL_Driver/Src/stm32f1xx_hal_adc_ex.c ****     }
1070:Drivers/STM32F1xx_HAL_Driver/Src/stm32f1xx_hal_adc_ex.c ****   }
1071:Drivers/STM32F1xx_HAL_Driver/Src/stm32f1xx_hal_adc_ex.c ****   else
1072:Drivers/STM32F1xx_HAL_Driver/Src/stm32f1xx_hal_adc_ex.c ****   {
1073:Drivers/STM32F1xx_HAL_Driver/Src/stm32f1xx_hal_adc_ex.c ****     /* Since injected channels rank conv. order depends on total number of   */
1074:Drivers/STM32F1xx_HAL_Driver/Src/stm32f1xx_hal_adc_ex.c ****     /* injected conversions, selected rank must be below or equal to total   */
1075:Drivers/STM32F1xx_HAL_Driver/Src/stm32f1xx_hal_adc_ex.c ****     /* number of injected conversions to be updated.                         */
1076:Drivers/STM32F1xx_HAL_Driver/Src/stm32f1xx_hal_adc_ex.c ****     if (sConfigInjected->InjectedRank <= sConfigInjected->InjectedNbrOfConversion)
 1409              		.loc 1 1076 0
 1410 0042 4B68     		ldr	r3, [r1, #4]
 1411 0044 0C69     		ldr	r4, [r1, #16]
 1412 0046 A342     		cmp	r3, r4
 1413 0048 15D8     		bhi	.L122
1077:Drivers/STM32F1xx_HAL_Driver/Src/stm32f1xx_hal_adc_ex.c ****     {
1078:Drivers/STM32F1xx_HAL_Driver/Src/stm32f1xx_hal_adc_ex.c ****       /* Clear the old SQx bits for the selected rank */
1079:Drivers/STM32F1xx_HAL_Driver/Src/stm32f1xx_hal_adc_ex.c ****       /* Set the SQx bits for the selected rank */
1080:Drivers/STM32F1xx_HAL_Driver/Src/stm32f1xx_hal_adc_ex.c ****       MODIFY_REG(hadc->Instance->JSQR                                         ,
 1414              		.loc 1 1080 0
ARM GAS  C:\Users\Areg\AppData\Local\Temp\cc1Gg1eQ.s 			page 45


 1415 004a 0668     		ldr	r6, [r0]
 1416 004c B76B     		ldr	r7, [r6, #56]
 1417 004e 1A1B     		subs	r2, r3, r4
 1418 0050 02EB8202 		add	r2, r2, r2, lsl #2
 1419 0054 0F32     		adds	r2, r2, #15
 1420 0056 1F23     		movs	r3, #31
 1421 0058 9340     		lsls	r3, r3, r2
 1422 005a 43F44013 		orr	r3, r3, #3145728
 1423 005e 27EA0307 		bic	r7, r7, r3
 1424 0062 631E     		subs	r3, r4, #1
 1425 0064 0D68     		ldr	r5, [r1]
 1426 0066 05FA02F2 		lsl	r2, r5, r2
 1427 006a 42EA0353 		orr	r3, r2, r3, lsl #20
 1428 006e 3B43     		orrs	r3, r3, r7
 1429 0070 B363     		str	r3, [r6, #56]
1016:Drivers/STM32F1xx_HAL_Driver/Src/stm32f1xx_hal_adc_ex.c ****   __IO uint32_t wait_loop_index = 0U;
 1430              		.loc 1 1016 0
 1431 0072 0022     		movs	r2, #0
 1432 0074 0EE0     		b	.L121
 1433              	.L122:
1081:Drivers/STM32F1xx_HAL_Driver/Src/stm32f1xx_hal_adc_ex.c ****                  
1082:Drivers/STM32F1xx_HAL_Driver/Src/stm32f1xx_hal_adc_ex.c ****                  ADC_JSQR_JL                                               |
1083:Drivers/STM32F1xx_HAL_Driver/Src/stm32f1xx_hal_adc_ex.c ****                  ADC_JSQR_RK_JL(ADC_JSQR_JSQ1,                         
1084:Drivers/STM32F1xx_HAL_Driver/Src/stm32f1xx_hal_adc_ex.c ****                                   sConfigInjected->InjectedRank,         
1085:Drivers/STM32F1xx_HAL_Driver/Src/stm32f1xx_hal_adc_ex.c ****                                   sConfigInjected->InjectedNbrOfConversion)   ,
1086:Drivers/STM32F1xx_HAL_Driver/Src/stm32f1xx_hal_adc_ex.c ****                  
1087:Drivers/STM32F1xx_HAL_Driver/Src/stm32f1xx_hal_adc_ex.c ****                  ADC_JSQR_JL_SHIFT(sConfigInjected->InjectedNbrOfConversion) |
1088:Drivers/STM32F1xx_HAL_Driver/Src/stm32f1xx_hal_adc_ex.c ****                  ADC_JSQR_RK_JL(sConfigInjected->InjectedChannel,      
1089:Drivers/STM32F1xx_HAL_Driver/Src/stm32f1xx_hal_adc_ex.c ****                                   sConfigInjected->InjectedRank,         
1090:Drivers/STM32F1xx_HAL_Driver/Src/stm32f1xx_hal_adc_ex.c ****                                   sConfigInjected->InjectedNbrOfConversion)    );
1091:Drivers/STM32F1xx_HAL_Driver/Src/stm32f1xx_hal_adc_ex.c ****     }
1092:Drivers/STM32F1xx_HAL_Driver/Src/stm32f1xx_hal_adc_ex.c ****     else
1093:Drivers/STM32F1xx_HAL_Driver/Src/stm32f1xx_hal_adc_ex.c ****     {
1094:Drivers/STM32F1xx_HAL_Driver/Src/stm32f1xx_hal_adc_ex.c ****       /* Clear the old SQx bits for the selected rank */
1095:Drivers/STM32F1xx_HAL_Driver/Src/stm32f1xx_hal_adc_ex.c ****       MODIFY_REG(hadc->Instance->JSQR                                       ,
 1434              		.loc 1 1095 0
 1435 0076 0668     		ldr	r6, [r0]
 1436 0078 B56B     		ldr	r5, [r6, #56]
 1437 007a 1B1B     		subs	r3, r3, r4
 1438 007c 03EB8303 		add	r3, r3, r3, lsl #2
 1439 0080 0F33     		adds	r3, r3, #15
 1440 0082 1F22     		movs	r2, #31
 1441 0084 02FA03F3 		lsl	r3, r2, r3
 1442 0088 43F44013 		orr	r3, r3, #3145728
 1443 008c 25EA0303 		bic	r3, r5, r3
 1444 0090 B363     		str	r3, [r6, #56]
1016:Drivers/STM32F1xx_HAL_Driver/Src/stm32f1xx_hal_adc_ex.c ****   __IO uint32_t wait_loop_index = 0U;
 1445              		.loc 1 1016 0
 1446 0092 0022     		movs	r2, #0
 1447              	.LVL107:
 1448              	.L121:
1096:Drivers/STM32F1xx_HAL_Driver/Src/stm32f1xx_hal_adc_ex.c ****                  
1097:Drivers/STM32F1xx_HAL_Driver/Src/stm32f1xx_hal_adc_ex.c ****                  ADC_JSQR_JL                                               |
1098:Drivers/STM32F1xx_HAL_Driver/Src/stm32f1xx_hal_adc_ex.c ****                  ADC_JSQR_RK_JL(ADC_JSQR_JSQ1,                         
1099:Drivers/STM32F1xx_HAL_Driver/Src/stm32f1xx_hal_adc_ex.c ****                                   sConfigInjected->InjectedRank,         
1100:Drivers/STM32F1xx_HAL_Driver/Src/stm32f1xx_hal_adc_ex.c ****                                   sConfigInjected->InjectedNbrOfConversion) ,
1101:Drivers/STM32F1xx_HAL_Driver/Src/stm32f1xx_hal_adc_ex.c ****                  
ARM GAS  C:\Users\Areg\AppData\Local\Temp\cc1Gg1eQ.s 			page 46


1102:Drivers/STM32F1xx_HAL_Driver/Src/stm32f1xx_hal_adc_ex.c ****                  0x00000000U);
1103:Drivers/STM32F1xx_HAL_Driver/Src/stm32f1xx_hal_adc_ex.c ****     }
1104:Drivers/STM32F1xx_HAL_Driver/Src/stm32f1xx_hal_adc_ex.c ****   } 
1105:Drivers/STM32F1xx_HAL_Driver/Src/stm32f1xx_hal_adc_ex.c ****     
1106:Drivers/STM32F1xx_HAL_Driver/Src/stm32f1xx_hal_adc_ex.c ****   /* Configuration of injected group                                          */
1107:Drivers/STM32F1xx_HAL_Driver/Src/stm32f1xx_hal_adc_ex.c ****   /* Parameters update conditioned to ADC state:                              */
1108:Drivers/STM32F1xx_HAL_Driver/Src/stm32f1xx_hal_adc_ex.c ****   /* Parameters that can be updated only when ADC is disabled:                */
1109:Drivers/STM32F1xx_HAL_Driver/Src/stm32f1xx_hal_adc_ex.c ****   /*  - external trigger to start conversion                                  */
1110:Drivers/STM32F1xx_HAL_Driver/Src/stm32f1xx_hal_adc_ex.c ****   /* Parameters update not conditioned to ADC state:                          */
1111:Drivers/STM32F1xx_HAL_Driver/Src/stm32f1xx_hal_adc_ex.c ****   /*  - Automatic injected conversion                                         */
1112:Drivers/STM32F1xx_HAL_Driver/Src/stm32f1xx_hal_adc_ex.c ****   /*  - Injected discontinuous mode                                           */
1113:Drivers/STM32F1xx_HAL_Driver/Src/stm32f1xx_hal_adc_ex.c ****   /* Note: In case of ADC already enabled, caution to not launch an unwanted  */
1114:Drivers/STM32F1xx_HAL_Driver/Src/stm32f1xx_hal_adc_ex.c ****   /*       conversion while modifying register CR2 by writing 1 to bit ADON.  */
1115:Drivers/STM32F1xx_HAL_Driver/Src/stm32f1xx_hal_adc_ex.c ****   if (ADC_IS_ENABLE(hadc) == RESET)
 1449              		.loc 1 1115 0
 1450 0094 0468     		ldr	r4, [r0]
 1451 0096 A368     		ldr	r3, [r4, #8]
 1452 0098 13F0010F 		tst	r3, #1
 1453 009c 11D1     		bne	.L123
1116:Drivers/STM32F1xx_HAL_Driver/Src/stm32f1xx_hal_adc_ex.c ****   {    
1117:Drivers/STM32F1xx_HAL_Driver/Src/stm32f1xx_hal_adc_ex.c ****     MODIFY_REG(hadc->Instance->CR2                                           ,
 1454              		.loc 1 1117 0
 1455 009e A368     		ldr	r3, [r4, #8]
 1456 00a0 23F4E043 		bic	r3, r3, #28672
 1457 00a4 23F00103 		bic	r3, r3, #1
 1458 00a8 5B4D     		ldr	r5, .L145
 1459 00aa AC42     		cmp	r4, r5
 1460 00ac 06D1     		bne	.L124
 1461              		.loc 1 1117 0 is_stmt 0 discriminator 1
 1462 00ae CD69     		ldr	r5, [r1, #28]
 1463 00b0 B5F5C04F 		cmp	r5, #24576
 1464 00b4 03D1     		bne	.L125
 1465              		.loc 1 1117 0
 1466 00b6 4FF48045 		mov	r5, #16384
 1467 00ba 00E0     		b	.L125
 1468              	.L124:
 1469              		.loc 1 1117 0 discriminator 2
 1470 00bc CD69     		ldr	r5, [r1, #28]
 1471              	.L125:
 1472              		.loc 1 1117 0 discriminator 8
 1473 00be 2B43     		orrs	r3, r3, r5
 1474 00c0 A360     		str	r3, [r4, #8]
 1475              	.L123:
1118:Drivers/STM32F1xx_HAL_Driver/Src/stm32f1xx_hal_adc_ex.c ****                ADC_CR2_JEXTSEL |
1119:Drivers/STM32F1xx_HAL_Driver/Src/stm32f1xx_hal_adc_ex.c ****                ADC_CR2_ADON                                                  ,
1120:Drivers/STM32F1xx_HAL_Driver/Src/stm32f1xx_hal_adc_ex.c ****                ADC_CFGR_JEXTSEL(hadc, sConfigInjected->ExternalTrigInjecConv) );
1121:Drivers/STM32F1xx_HAL_Driver/Src/stm32f1xx_hal_adc_ex.c ****   }
1122:Drivers/STM32F1xx_HAL_Driver/Src/stm32f1xx_hal_adc_ex.c ****   
1123:Drivers/STM32F1xx_HAL_Driver/Src/stm32f1xx_hal_adc_ex.c ****   
1124:Drivers/STM32F1xx_HAL_Driver/Src/stm32f1xx_hal_adc_ex.c ****   /* Configuration of injected group                                          */
1125:Drivers/STM32F1xx_HAL_Driver/Src/stm32f1xx_hal_adc_ex.c ****   /*  - Automatic injected conversion                                         */
1126:Drivers/STM32F1xx_HAL_Driver/Src/stm32f1xx_hal_adc_ex.c ****   /*  - Injected discontinuous mode                                           */
1127:Drivers/STM32F1xx_HAL_Driver/Src/stm32f1xx_hal_adc_ex.c ****   
1128:Drivers/STM32F1xx_HAL_Driver/Src/stm32f1xx_hal_adc_ex.c ****     /* Automatic injected conversion can be enabled if injected group         */
1129:Drivers/STM32F1xx_HAL_Driver/Src/stm32f1xx_hal_adc_ex.c ****     /* external triggers are disabled.                                        */
1130:Drivers/STM32F1xx_HAL_Driver/Src/stm32f1xx_hal_adc_ex.c ****     if (sConfigInjected->AutoInjectedConv == ENABLE)
 1476              		.loc 1 1130 0 is_stmt 1
ARM GAS  C:\Users\Areg\AppData\Local\Temp\cc1Gg1eQ.s 			page 47


 1477 00c2 8B69     		ldr	r3, [r1, #24]
 1478 00c4 012B     		cmp	r3, #1
 1479 00c6 0ED1     		bne	.L126
1131:Drivers/STM32F1xx_HAL_Driver/Src/stm32f1xx_hal_adc_ex.c ****     {
1132:Drivers/STM32F1xx_HAL_Driver/Src/stm32f1xx_hal_adc_ex.c ****       if (sConfigInjected->ExternalTrigInjecConv == ADC_INJECTED_SOFTWARE_START)
 1480              		.loc 1 1132 0
 1481 00c8 CB69     		ldr	r3, [r1, #28]
 1482 00ca B3F5E04F 		cmp	r3, #28672
 1483 00ce 05D1     		bne	.L127
1133:Drivers/STM32F1xx_HAL_Driver/Src/stm32f1xx_hal_adc_ex.c ****       {
1134:Drivers/STM32F1xx_HAL_Driver/Src/stm32f1xx_hal_adc_ex.c ****         SET_BIT(hadc->Instance->CR1, ADC_CR1_JAUTO);
 1484              		.loc 1 1134 0
 1485 00d0 0468     		ldr	r4, [r0]
 1486 00d2 6368     		ldr	r3, [r4, #4]
 1487 00d4 43F48063 		orr	r3, r3, #1024
 1488 00d8 6360     		str	r3, [r4, #4]
 1489 00da 04E0     		b	.L126
 1490              	.L127:
1135:Drivers/STM32F1xx_HAL_Driver/Src/stm32f1xx_hal_adc_ex.c ****       }
1136:Drivers/STM32F1xx_HAL_Driver/Src/stm32f1xx_hal_adc_ex.c ****       else
1137:Drivers/STM32F1xx_HAL_Driver/Src/stm32f1xx_hal_adc_ex.c ****       {
1138:Drivers/STM32F1xx_HAL_Driver/Src/stm32f1xx_hal_adc_ex.c ****         /* Update ADC state machine to error */
1139:Drivers/STM32F1xx_HAL_Driver/Src/stm32f1xx_hal_adc_ex.c ****         SET_BIT(hadc->State, HAL_ADC_STATE_ERROR_CONFIG);
 1491              		.loc 1 1139 0
 1492 00dc 836A     		ldr	r3, [r0, #40]
 1493 00de 43F02003 		orr	r3, r3, #32
 1494 00e2 8362     		str	r3, [r0, #40]
 1495              	.LVL108:
1140:Drivers/STM32F1xx_HAL_Driver/Src/stm32f1xx_hal_adc_ex.c ****         
1141:Drivers/STM32F1xx_HAL_Driver/Src/stm32f1xx_hal_adc_ex.c ****         tmp_hal_status = HAL_ERROR;
 1496              		.loc 1 1141 0
 1497 00e4 0122     		movs	r2, #1
 1498              	.LVL109:
 1499              	.L126:
1142:Drivers/STM32F1xx_HAL_Driver/Src/stm32f1xx_hal_adc_ex.c ****       }
1143:Drivers/STM32F1xx_HAL_Driver/Src/stm32f1xx_hal_adc_ex.c ****     }
1144:Drivers/STM32F1xx_HAL_Driver/Src/stm32f1xx_hal_adc_ex.c ****     
1145:Drivers/STM32F1xx_HAL_Driver/Src/stm32f1xx_hal_adc_ex.c ****     /* Injected discontinuous can be enabled only if auto-injected mode is    */
1146:Drivers/STM32F1xx_HAL_Driver/Src/stm32f1xx_hal_adc_ex.c ****     /* disabled.                                                              */  
1147:Drivers/STM32F1xx_HAL_Driver/Src/stm32f1xx_hal_adc_ex.c ****     if (sConfigInjected->InjectedDiscontinuousConvMode == ENABLE)
 1500              		.loc 1 1147 0
 1501 00e6 4B69     		ldr	r3, [r1, #20]
 1502 00e8 012B     		cmp	r3, #1
 1503 00ea 0CD1     		bne	.L128
1148:Drivers/STM32F1xx_HAL_Driver/Src/stm32f1xx_hal_adc_ex.c ****     {
1149:Drivers/STM32F1xx_HAL_Driver/Src/stm32f1xx_hal_adc_ex.c ****       if (sConfigInjected->AutoInjectedConv == DISABLE)
 1504              		.loc 1 1149 0
 1505 00ec 8B69     		ldr	r3, [r1, #24]
 1506 00ee 2BB9     		cbnz	r3, .L129
1150:Drivers/STM32F1xx_HAL_Driver/Src/stm32f1xx_hal_adc_ex.c ****       {
1151:Drivers/STM32F1xx_HAL_Driver/Src/stm32f1xx_hal_adc_ex.c ****         SET_BIT(hadc->Instance->CR1, ADC_CR1_JDISCEN);
 1507              		.loc 1 1151 0
 1508 00f0 0468     		ldr	r4, [r0]
 1509 00f2 6368     		ldr	r3, [r4, #4]
 1510 00f4 43F48053 		orr	r3, r3, #4096
 1511 00f8 6360     		str	r3, [r4, #4]
 1512 00fa 04E0     		b	.L128
ARM GAS  C:\Users\Areg\AppData\Local\Temp\cc1Gg1eQ.s 			page 48


 1513              	.L129:
1152:Drivers/STM32F1xx_HAL_Driver/Src/stm32f1xx_hal_adc_ex.c ****       } 
1153:Drivers/STM32F1xx_HAL_Driver/Src/stm32f1xx_hal_adc_ex.c ****       else
1154:Drivers/STM32F1xx_HAL_Driver/Src/stm32f1xx_hal_adc_ex.c ****       {
1155:Drivers/STM32F1xx_HAL_Driver/Src/stm32f1xx_hal_adc_ex.c ****         /* Update ADC state machine to error */
1156:Drivers/STM32F1xx_HAL_Driver/Src/stm32f1xx_hal_adc_ex.c ****         SET_BIT(hadc->State, HAL_ADC_STATE_ERROR_CONFIG);
 1514              		.loc 1 1156 0
 1515 00fc 836A     		ldr	r3, [r0, #40]
 1516 00fe 43F02003 		orr	r3, r3, #32
 1517 0102 8362     		str	r3, [r0, #40]
 1518              	.LVL110:
1157:Drivers/STM32F1xx_HAL_Driver/Src/stm32f1xx_hal_adc_ex.c ****         
1158:Drivers/STM32F1xx_HAL_Driver/Src/stm32f1xx_hal_adc_ex.c ****         tmp_hal_status = HAL_ERROR;
 1519              		.loc 1 1158 0
 1520 0104 0122     		movs	r2, #1
 1521              	.LVL111:
 1522              	.L128:
1159:Drivers/STM32F1xx_HAL_Driver/Src/stm32f1xx_hal_adc_ex.c ****       }
1160:Drivers/STM32F1xx_HAL_Driver/Src/stm32f1xx_hal_adc_ex.c ****     }
1161:Drivers/STM32F1xx_HAL_Driver/Src/stm32f1xx_hal_adc_ex.c **** 
1162:Drivers/STM32F1xx_HAL_Driver/Src/stm32f1xx_hal_adc_ex.c **** 
1163:Drivers/STM32F1xx_HAL_Driver/Src/stm32f1xx_hal_adc_ex.c ****   /* InjectedChannel sampling time configuration */
1164:Drivers/STM32F1xx_HAL_Driver/Src/stm32f1xx_hal_adc_ex.c ****   /* For channels 10 to 17 */
1165:Drivers/STM32F1xx_HAL_Driver/Src/stm32f1xx_hal_adc_ex.c ****   if (sConfigInjected->InjectedChannel >= ADC_CHANNEL_10)
 1523              		.loc 1 1165 0
 1524 0106 0B68     		ldr	r3, [r1]
 1525 0108 092B     		cmp	r3, #9
 1526 010a 0ED9     		bls	.L130
1166:Drivers/STM32F1xx_HAL_Driver/Src/stm32f1xx_hal_adc_ex.c ****   {
1167:Drivers/STM32F1xx_HAL_Driver/Src/stm32f1xx_hal_adc_ex.c ****     MODIFY_REG(hadc->Instance->SMPR1                                                             ,
 1527              		.loc 1 1167 0
 1528 010c 0768     		ldr	r7, [r0]
 1529 010e FE68     		ldr	r6, [r7, #12]
 1530 0110 03EB4303 		add	r3, r3, r3, lsl #1
 1531 0114 1E3B     		subs	r3, r3, #30
 1532 0116 0725     		movs	r5, #7
 1533 0118 9D40     		lsls	r5, r5, r3
 1534 011a 26EA0505 		bic	r5, r6, r5
 1535 011e 8C68     		ldr	r4, [r1, #8]
 1536 0120 04FA03F3 		lsl	r3, r4, r3
 1537 0124 2B43     		orrs	r3, r3, r5
 1538 0126 FB60     		str	r3, [r7, #12]
 1539 0128 0CE0     		b	.L131
 1540              	.L130:
1168:Drivers/STM32F1xx_HAL_Driver/Src/stm32f1xx_hal_adc_ex.c ****                ADC_SMPR1(ADC_SMPR1_SMP10, sConfigInjected->InjectedChannel)                      ,
1169:Drivers/STM32F1xx_HAL_Driver/Src/stm32f1xx_hal_adc_ex.c ****                ADC_SMPR1(sConfigInjected->InjectedSamplingTime, sConfigInjected->InjectedChannel) )
1170:Drivers/STM32F1xx_HAL_Driver/Src/stm32f1xx_hal_adc_ex.c ****   }
1171:Drivers/STM32F1xx_HAL_Driver/Src/stm32f1xx_hal_adc_ex.c ****   else /* For channels 0 to 9 */
1172:Drivers/STM32F1xx_HAL_Driver/Src/stm32f1xx_hal_adc_ex.c ****   {
1173:Drivers/STM32F1xx_HAL_Driver/Src/stm32f1xx_hal_adc_ex.c ****     MODIFY_REG(hadc->Instance->SMPR2                                                             ,
 1541              		.loc 1 1173 0
 1542 012a 0768     		ldr	r7, [r0]
 1543 012c 3E69     		ldr	r6, [r7, #16]
 1544 012e 03EB4303 		add	r3, r3, r3, lsl #1
 1545 0132 0725     		movs	r5, #7
 1546 0134 9D40     		lsls	r5, r5, r3
 1547 0136 26EA0505 		bic	r5, r6, r5
ARM GAS  C:\Users\Areg\AppData\Local\Temp\cc1Gg1eQ.s 			page 49


 1548 013a 8C68     		ldr	r4, [r1, #8]
 1549 013c 04FA03F3 		lsl	r3, r4, r3
 1550 0140 2B43     		orrs	r3, r3, r5
 1551 0142 3B61     		str	r3, [r7, #16]
 1552              	.L131:
1174:Drivers/STM32F1xx_HAL_Driver/Src/stm32f1xx_hal_adc_ex.c ****                ADC_SMPR2(ADC_SMPR2_SMP0, sConfigInjected->InjectedChannel)                       ,
1175:Drivers/STM32F1xx_HAL_Driver/Src/stm32f1xx_hal_adc_ex.c ****                ADC_SMPR2(sConfigInjected->InjectedSamplingTime, sConfigInjected->InjectedChannel) )
1176:Drivers/STM32F1xx_HAL_Driver/Src/stm32f1xx_hal_adc_ex.c ****   }
1177:Drivers/STM32F1xx_HAL_Driver/Src/stm32f1xx_hal_adc_ex.c ****   
1178:Drivers/STM32F1xx_HAL_Driver/Src/stm32f1xx_hal_adc_ex.c ****   /* If ADC1 InjectedChannel_16 or InjectedChannel_17 is selected, enable Temperature sensor  */
1179:Drivers/STM32F1xx_HAL_Driver/Src/stm32f1xx_hal_adc_ex.c ****   /* and VREFINT measurement path.                                            */
1180:Drivers/STM32F1xx_HAL_Driver/Src/stm32f1xx_hal_adc_ex.c ****   if ((sConfigInjected->InjectedChannel == ADC_CHANNEL_TEMPSENSOR) ||
 1553              		.loc 1 1180 0
 1554 0144 0B68     		ldr	r3, [r1]
 1555 0146 103B     		subs	r3, r3, #16
 1556 0148 012B     		cmp	r3, #1
 1557 014a 04D8     		bhi	.L132
1181:Drivers/STM32F1xx_HAL_Driver/Src/stm32f1xx_hal_adc_ex.c ****       (sConfigInjected->InjectedChannel == ADC_CHANNEL_VREFINT)      )
1182:Drivers/STM32F1xx_HAL_Driver/Src/stm32f1xx_hal_adc_ex.c ****   {
1183:Drivers/STM32F1xx_HAL_Driver/Src/stm32f1xx_hal_adc_ex.c ****     SET_BIT(hadc->Instance->CR2, ADC_CR2_TSVREFE);
 1558              		.loc 1 1183 0
 1559 014c 0468     		ldr	r4, [r0]
 1560 014e A368     		ldr	r3, [r4, #8]
 1561 0150 43F40003 		orr	r3, r3, #8388608
 1562 0154 A360     		str	r3, [r4, #8]
 1563              	.L132:
1184:Drivers/STM32F1xx_HAL_Driver/Src/stm32f1xx_hal_adc_ex.c ****   }
1185:Drivers/STM32F1xx_HAL_Driver/Src/stm32f1xx_hal_adc_ex.c ****   
1186:Drivers/STM32F1xx_HAL_Driver/Src/stm32f1xx_hal_adc_ex.c ****   
1187:Drivers/STM32F1xx_HAL_Driver/Src/stm32f1xx_hal_adc_ex.c ****   /* Configure the offset: offset enable/disable, InjectedChannel, offset value */
1188:Drivers/STM32F1xx_HAL_Driver/Src/stm32f1xx_hal_adc_ex.c ****   switch(sConfigInjected->InjectedRank)
 1564              		.loc 1 1188 0
 1565 0156 4B68     		ldr	r3, [r1, #4]
 1566 0158 022B     		cmp	r3, #2
 1567 015a 0DD0     		beq	.L134
 1568 015c 032B     		cmp	r3, #3
 1569 015e 15D0     		beq	.L135
 1570 0160 012B     		cmp	r3, #1
 1571 0162 1DD1     		bne	.L143
1189:Drivers/STM32F1xx_HAL_Driver/Src/stm32f1xx_hal_adc_ex.c ****   {
1190:Drivers/STM32F1xx_HAL_Driver/Src/stm32f1xx_hal_adc_ex.c ****     case 1:
1191:Drivers/STM32F1xx_HAL_Driver/Src/stm32f1xx_hal_adc_ex.c ****       /* Set injected channel 1 offset */
1192:Drivers/STM32F1xx_HAL_Driver/Src/stm32f1xx_hal_adc_ex.c ****       MODIFY_REG(hadc->Instance->JOFR1,
 1572              		.loc 1 1192 0
 1573 0164 0568     		ldr	r5, [r0]
 1574 0166 6B69     		ldr	r3, [r5, #20]
 1575 0168 23F47F63 		bic	r3, r3, #4080
 1576 016c 23F00F03 		bic	r3, r3, #15
 1577 0170 CC68     		ldr	r4, [r1, #12]
 1578 0172 2343     		orrs	r3, r3, r4
 1579 0174 6B61     		str	r3, [r5, #20]
1193:Drivers/STM32F1xx_HAL_Driver/Src/stm32f1xx_hal_adc_ex.c ****                  ADC_JOFR1_JOFFSET1,
1194:Drivers/STM32F1xx_HAL_Driver/Src/stm32f1xx_hal_adc_ex.c ****                  sConfigInjected->InjectedOffset);
1195:Drivers/STM32F1xx_HAL_Driver/Src/stm32f1xx_hal_adc_ex.c ****       break;
 1580              		.loc 1 1195 0
 1581 0176 1CE0     		b	.L137
 1582              	.L134:
ARM GAS  C:\Users\Areg\AppData\Local\Temp\cc1Gg1eQ.s 			page 50


1196:Drivers/STM32F1xx_HAL_Driver/Src/stm32f1xx_hal_adc_ex.c ****     case 2:
1197:Drivers/STM32F1xx_HAL_Driver/Src/stm32f1xx_hal_adc_ex.c ****       /* Set injected channel 2 offset */
1198:Drivers/STM32F1xx_HAL_Driver/Src/stm32f1xx_hal_adc_ex.c ****       MODIFY_REG(hadc->Instance->JOFR2,
 1583              		.loc 1 1198 0
 1584 0178 0568     		ldr	r5, [r0]
 1585 017a AB69     		ldr	r3, [r5, #24]
 1586 017c 23F47F63 		bic	r3, r3, #4080
 1587 0180 23F00F03 		bic	r3, r3, #15
 1588 0184 CC68     		ldr	r4, [r1, #12]
 1589 0186 2343     		orrs	r3, r3, r4
 1590 0188 AB61     		str	r3, [r5, #24]
1199:Drivers/STM32F1xx_HAL_Driver/Src/stm32f1xx_hal_adc_ex.c ****                  ADC_JOFR2_JOFFSET2,
1200:Drivers/STM32F1xx_HAL_Driver/Src/stm32f1xx_hal_adc_ex.c ****                  sConfigInjected->InjectedOffset);
1201:Drivers/STM32F1xx_HAL_Driver/Src/stm32f1xx_hal_adc_ex.c ****       break;
 1591              		.loc 1 1201 0
 1592 018a 12E0     		b	.L137
 1593              	.L135:
1202:Drivers/STM32F1xx_HAL_Driver/Src/stm32f1xx_hal_adc_ex.c ****     case 3:
1203:Drivers/STM32F1xx_HAL_Driver/Src/stm32f1xx_hal_adc_ex.c ****       /* Set injected channel 3 offset */
1204:Drivers/STM32F1xx_HAL_Driver/Src/stm32f1xx_hal_adc_ex.c ****       MODIFY_REG(hadc->Instance->JOFR3,
 1594              		.loc 1 1204 0
 1595 018c 0568     		ldr	r5, [r0]
 1596 018e EB69     		ldr	r3, [r5, #28]
 1597 0190 23F47F63 		bic	r3, r3, #4080
 1598 0194 23F00F03 		bic	r3, r3, #15
 1599 0198 CC68     		ldr	r4, [r1, #12]
 1600 019a 2343     		orrs	r3, r3, r4
 1601 019c EB61     		str	r3, [r5, #28]
1205:Drivers/STM32F1xx_HAL_Driver/Src/stm32f1xx_hal_adc_ex.c ****                  ADC_JOFR3_JOFFSET3,
1206:Drivers/STM32F1xx_HAL_Driver/Src/stm32f1xx_hal_adc_ex.c ****                  sConfigInjected->InjectedOffset);
1207:Drivers/STM32F1xx_HAL_Driver/Src/stm32f1xx_hal_adc_ex.c ****       break;
 1602              		.loc 1 1207 0
 1603 019e 08E0     		b	.L137
 1604              	.L143:
1208:Drivers/STM32F1xx_HAL_Driver/Src/stm32f1xx_hal_adc_ex.c ****     case 4:
1209:Drivers/STM32F1xx_HAL_Driver/Src/stm32f1xx_hal_adc_ex.c ****     default:
1210:Drivers/STM32F1xx_HAL_Driver/Src/stm32f1xx_hal_adc_ex.c ****       MODIFY_REG(hadc->Instance->JOFR4,
 1605              		.loc 1 1210 0
 1606 01a0 0568     		ldr	r5, [r0]
 1607 01a2 2B6A     		ldr	r3, [r5, #32]
 1608 01a4 23F47F63 		bic	r3, r3, #4080
 1609 01a8 23F00F03 		bic	r3, r3, #15
 1610 01ac CC68     		ldr	r4, [r1, #12]
 1611 01ae 2343     		orrs	r3, r3, r4
 1612 01b0 2B62     		str	r3, [r5, #32]
 1613              	.L137:
1211:Drivers/STM32F1xx_HAL_Driver/Src/stm32f1xx_hal_adc_ex.c ****                  ADC_JOFR4_JOFFSET4,
1212:Drivers/STM32F1xx_HAL_Driver/Src/stm32f1xx_hal_adc_ex.c ****                  sConfigInjected->InjectedOffset);
1213:Drivers/STM32F1xx_HAL_Driver/Src/stm32f1xx_hal_adc_ex.c ****       break;
1214:Drivers/STM32F1xx_HAL_Driver/Src/stm32f1xx_hal_adc_ex.c ****   }
1215:Drivers/STM32F1xx_HAL_Driver/Src/stm32f1xx_hal_adc_ex.c ****   
1216:Drivers/STM32F1xx_HAL_Driver/Src/stm32f1xx_hal_adc_ex.c ****   /* If ADC1 Channel_16 or Channel_17 is selected, enable Temperature sensor  */
1217:Drivers/STM32F1xx_HAL_Driver/Src/stm32f1xx_hal_adc_ex.c ****   /* and VREFINT measurement path.                                            */
1218:Drivers/STM32F1xx_HAL_Driver/Src/stm32f1xx_hal_adc_ex.c ****   if ((sConfigInjected->InjectedChannel == ADC_CHANNEL_TEMPSENSOR) ||
 1614              		.loc 1 1218 0
 1615 01b2 0B68     		ldr	r3, [r1]
 1616 01b4 103B     		subs	r3, r3, #16
ARM GAS  C:\Users\Areg\AppData\Local\Temp\cc1Gg1eQ.s 			page 51


 1617 01b6 012B     		cmp	r3, #1
 1618 01b8 25D8     		bhi	.L138
1219:Drivers/STM32F1xx_HAL_Driver/Src/stm32f1xx_hal_adc_ex.c ****       (sConfigInjected->InjectedChannel == ADC_CHANNEL_VREFINT)      )
1220:Drivers/STM32F1xx_HAL_Driver/Src/stm32f1xx_hal_adc_ex.c ****   {
1221:Drivers/STM32F1xx_HAL_Driver/Src/stm32f1xx_hal_adc_ex.c ****     /* For STM32F1 devices with several ADC: Only ADC1 can access internal    */
1222:Drivers/STM32F1xx_HAL_Driver/Src/stm32f1xx_hal_adc_ex.c ****     /* measurement channels (VrefInt/TempSensor). If these channels are       */
1223:Drivers/STM32F1xx_HAL_Driver/Src/stm32f1xx_hal_adc_ex.c ****     /* intended to be set on other ADC instances, an error is reported.       */
1224:Drivers/STM32F1xx_HAL_Driver/Src/stm32f1xx_hal_adc_ex.c ****     if (hadc->Instance == ADC1)
 1619              		.loc 1 1224 0
 1620 01ba 0368     		ldr	r3, [r0]
 1621 01bc 174C     		ldr	r4, .L145+4
 1622 01be A342     		cmp	r3, r4
 1623 01c0 1CD1     		bne	.L139
1225:Drivers/STM32F1xx_HAL_Driver/Src/stm32f1xx_hal_adc_ex.c ****     {
1226:Drivers/STM32F1xx_HAL_Driver/Src/stm32f1xx_hal_adc_ex.c ****       if (READ_BIT(hadc->Instance->CR2, ADC_CR2_TSVREFE) == RESET)
 1624              		.loc 1 1226 0
 1625 01c2 9C68     		ldr	r4, [r3, #8]
 1626 01c4 14F4000F 		tst	r4, #8388608
 1627 01c8 1DD1     		bne	.L138
1227:Drivers/STM32F1xx_HAL_Driver/Src/stm32f1xx_hal_adc_ex.c ****       {
1228:Drivers/STM32F1xx_HAL_Driver/Src/stm32f1xx_hal_adc_ex.c ****         SET_BIT(hadc->Instance->CR2, ADC_CR2_TSVREFE);
 1628              		.loc 1 1228 0
 1629 01ca 9C68     		ldr	r4, [r3, #8]
 1630 01cc 44F40004 		orr	r4, r4, #8388608
 1631 01d0 9C60     		str	r4, [r3, #8]
1229:Drivers/STM32F1xx_HAL_Driver/Src/stm32f1xx_hal_adc_ex.c ****         
1230:Drivers/STM32F1xx_HAL_Driver/Src/stm32f1xx_hal_adc_ex.c ****         if ((sConfigInjected->InjectedChannel == ADC_CHANNEL_TEMPSENSOR))
 1632              		.loc 1 1230 0
 1633 01d2 0B68     		ldr	r3, [r1]
 1634 01d4 102B     		cmp	r3, #16
 1635 01d6 16D1     		bne	.L138
1231:Drivers/STM32F1xx_HAL_Driver/Src/stm32f1xx_hal_adc_ex.c ****         {
1232:Drivers/STM32F1xx_HAL_Driver/Src/stm32f1xx_hal_adc_ex.c ****           /* Delay for temperature sensor stabilization time */
1233:Drivers/STM32F1xx_HAL_Driver/Src/stm32f1xx_hal_adc_ex.c ****           /* Compute number of CPU cycles to wait for */
1234:Drivers/STM32F1xx_HAL_Driver/Src/stm32f1xx_hal_adc_ex.c ****           wait_loop_index = (ADC_TEMPSENSOR_DELAY_US * (SystemCoreClock / 1000000U));
 1636              		.loc 1 1234 0
 1637 01d8 114B     		ldr	r3, .L145+8
 1638 01da 1B68     		ldr	r3, [r3]
 1639 01dc 1149     		ldr	r1, .L145+12
 1640              	.LVL112:
 1641 01de A1FB0313 		umull	r1, r3, r1, r3
 1642 01e2 9B0C     		lsrs	r3, r3, #18
 1643 01e4 03EB8303 		add	r3, r3, r3, lsl #2
 1644 01e8 5900     		lsls	r1, r3, #1
 1645 01ea 0191     		str	r1, [sp, #4]
1235:Drivers/STM32F1xx_HAL_Driver/Src/stm32f1xx_hal_adc_ex.c ****           while(wait_loop_index != 0U)
 1646              		.loc 1 1235 0
 1647 01ec 02E0     		b	.L140
 1648              	.L141:
1236:Drivers/STM32F1xx_HAL_Driver/Src/stm32f1xx_hal_adc_ex.c ****           {
1237:Drivers/STM32F1xx_HAL_Driver/Src/stm32f1xx_hal_adc_ex.c ****             wait_loop_index--;
 1649              		.loc 1 1237 0
 1650 01ee 019B     		ldr	r3, [sp, #4]
 1651 01f0 013B     		subs	r3, r3, #1
 1652 01f2 0193     		str	r3, [sp, #4]
 1653              	.L140:
1235:Drivers/STM32F1xx_HAL_Driver/Src/stm32f1xx_hal_adc_ex.c ****           while(wait_loop_index != 0U)
ARM GAS  C:\Users\Areg\AppData\Local\Temp\cc1Gg1eQ.s 			page 52


 1654              		.loc 1 1235 0
 1655 01f4 019B     		ldr	r3, [sp, #4]
 1656 01f6 002B     		cmp	r3, #0
 1657 01f8 F9D1     		bne	.L141
 1658 01fa 04E0     		b	.L138
 1659              	.LVL113:
 1660              	.L139:
1238:Drivers/STM32F1xx_HAL_Driver/Src/stm32f1xx_hal_adc_ex.c ****           }
1239:Drivers/STM32F1xx_HAL_Driver/Src/stm32f1xx_hal_adc_ex.c ****         }
1240:Drivers/STM32F1xx_HAL_Driver/Src/stm32f1xx_hal_adc_ex.c ****       }
1241:Drivers/STM32F1xx_HAL_Driver/Src/stm32f1xx_hal_adc_ex.c ****     }
1242:Drivers/STM32F1xx_HAL_Driver/Src/stm32f1xx_hal_adc_ex.c ****     else
1243:Drivers/STM32F1xx_HAL_Driver/Src/stm32f1xx_hal_adc_ex.c ****     {
1244:Drivers/STM32F1xx_HAL_Driver/Src/stm32f1xx_hal_adc_ex.c ****       /* Update ADC state machine to error */
1245:Drivers/STM32F1xx_HAL_Driver/Src/stm32f1xx_hal_adc_ex.c ****       SET_BIT(hadc->State, HAL_ADC_STATE_ERROR_CONFIG);
 1661              		.loc 1 1245 0
 1662 01fc 836A     		ldr	r3, [r0, #40]
 1663 01fe 43F02003 		orr	r3, r3, #32
 1664 0202 8362     		str	r3, [r0, #40]
 1665              	.LVL114:
1246:Drivers/STM32F1xx_HAL_Driver/Src/stm32f1xx_hal_adc_ex.c ****       
1247:Drivers/STM32F1xx_HAL_Driver/Src/stm32f1xx_hal_adc_ex.c ****       tmp_hal_status = HAL_ERROR;
 1666              		.loc 1 1247 0
 1667 0204 0122     		movs	r2, #1
 1668              	.LVL115:
 1669              	.L138:
1248:Drivers/STM32F1xx_HAL_Driver/Src/stm32f1xx_hal_adc_ex.c ****     }
1249:Drivers/STM32F1xx_HAL_Driver/Src/stm32f1xx_hal_adc_ex.c ****   }
1250:Drivers/STM32F1xx_HAL_Driver/Src/stm32f1xx_hal_adc_ex.c ****   
1251:Drivers/STM32F1xx_HAL_Driver/Src/stm32f1xx_hal_adc_ex.c ****   /* Process unlocked */
1252:Drivers/STM32F1xx_HAL_Driver/Src/stm32f1xx_hal_adc_ex.c ****   __HAL_UNLOCK(hadc);
 1670              		.loc 1 1252 0
 1671 0206 0023     		movs	r3, #0
 1672 0208 80F82430 		strb	r3, [r0, #36]
1253:Drivers/STM32F1xx_HAL_Driver/Src/stm32f1xx_hal_adc_ex.c ****   
1254:Drivers/STM32F1xx_HAL_Driver/Src/stm32f1xx_hal_adc_ex.c ****   /* Return function status */
1255:Drivers/STM32F1xx_HAL_Driver/Src/stm32f1xx_hal_adc_ex.c ****   return tmp_hal_status;
 1673              		.loc 1 1255 0
 1674 020c 1046     		mov	r0, r2
 1675              	.LVL116:
 1676 020e 00E0     		b	.L118
 1677              	.LVL117:
 1678              	.L142:
1035:Drivers/STM32F1xx_HAL_Driver/Src/stm32f1xx_hal_adc_ex.c ****   
 1679              		.loc 1 1035 0
 1680 0210 0220     		movs	r0, #2
 1681              	.LVL118:
 1682              	.L118:
1256:Drivers/STM32F1xx_HAL_Driver/Src/stm32f1xx_hal_adc_ex.c **** }
 1683              		.loc 1 1256 0
 1684 0212 02B0     		add	sp, sp, #8
 1685              	.LCFI26:
 1686              		.cfi_def_cfa_offset 16
 1687              		@ sp needed
 1688 0214 F0BC     		pop	{r4, r5, r6, r7}
 1689              	.LCFI27:
 1690              		.cfi_restore 7
ARM GAS  C:\Users\Areg\AppData\Local\Temp\cc1Gg1eQ.s 			page 53


 1691              		.cfi_restore 6
 1692              		.cfi_restore 5
 1693              		.cfi_restore 4
 1694              		.cfi_def_cfa_offset 0
 1695 0216 7047     		bx	lr
 1696              	.L146:
 1697              		.align	2
 1698              	.L145:
 1699 0218 003C0140 		.word	1073822720
 1700 021c 00240140 		.word	1073816576
 1701 0220 00000000 		.word	SystemCoreClock
 1702 0224 83DE1B43 		.word	1125899907
 1703              		.cfi_endproc
 1704              	.LFE75:
 1706              		.section	.text.HAL_ADCEx_MultiModeConfigChannel,"ax",%progbits
 1707              		.align	2
 1708              		.global	HAL_ADCEx_MultiModeConfigChannel
 1709              		.thumb
 1710              		.thumb_func
 1712              	HAL_ADCEx_MultiModeConfigChannel:
 1713              	.LFB76:
1257:Drivers/STM32F1xx_HAL_Driver/Src/stm32f1xx_hal_adc_ex.c **** 
1258:Drivers/STM32F1xx_HAL_Driver/Src/stm32f1xx_hal_adc_ex.c **** #if defined (STM32F103x6) || defined (STM32F103xB) || defined (STM32F105xC) || defined (STM32F107xC
1259:Drivers/STM32F1xx_HAL_Driver/Src/stm32f1xx_hal_adc_ex.c **** /**
1260:Drivers/STM32F1xx_HAL_Driver/Src/stm32f1xx_hal_adc_ex.c ****   * @brief  Enable ADC multimode and configure multimode parameters
1261:Drivers/STM32F1xx_HAL_Driver/Src/stm32f1xx_hal_adc_ex.c ****   * @note   Possibility to update parameters on the fly:
1262:Drivers/STM32F1xx_HAL_Driver/Src/stm32f1xx_hal_adc_ex.c ****   *         This function initializes multimode parameters, following  
1263:Drivers/STM32F1xx_HAL_Driver/Src/stm32f1xx_hal_adc_ex.c ****   *         calls to this function can be used to reconfigure some parameters 
1264:Drivers/STM32F1xx_HAL_Driver/Src/stm32f1xx_hal_adc_ex.c ****   *         of structure "ADC_MultiModeTypeDef" on the fly, without reseting 
1265:Drivers/STM32F1xx_HAL_Driver/Src/stm32f1xx_hal_adc_ex.c ****   *         the ADCs (both ADCs of the common group).
1266:Drivers/STM32F1xx_HAL_Driver/Src/stm32f1xx_hal_adc_ex.c ****   *         The setting of these parameters is conditioned to ADC state.
1267:Drivers/STM32F1xx_HAL_Driver/Src/stm32f1xx_hal_adc_ex.c ****   *         For parameters constraints, see comments of structure 
1268:Drivers/STM32F1xx_HAL_Driver/Src/stm32f1xx_hal_adc_ex.c ****   *         "ADC_MultiModeTypeDef".
1269:Drivers/STM32F1xx_HAL_Driver/Src/stm32f1xx_hal_adc_ex.c ****   * @note   To change back configuration from multimode to single mode, ADC must
1270:Drivers/STM32F1xx_HAL_Driver/Src/stm32f1xx_hal_adc_ex.c ****   *         be reset (using function HAL_ADC_Init() ).
1271:Drivers/STM32F1xx_HAL_Driver/Src/stm32f1xx_hal_adc_ex.c ****   * @param  hadc: ADC handle
1272:Drivers/STM32F1xx_HAL_Driver/Src/stm32f1xx_hal_adc_ex.c ****   * @param  multimode: Structure of ADC multimode configuration
1273:Drivers/STM32F1xx_HAL_Driver/Src/stm32f1xx_hal_adc_ex.c ****   * @retval HAL status
1274:Drivers/STM32F1xx_HAL_Driver/Src/stm32f1xx_hal_adc_ex.c ****   */
1275:Drivers/STM32F1xx_HAL_Driver/Src/stm32f1xx_hal_adc_ex.c **** HAL_StatusTypeDef HAL_ADCEx_MultiModeConfigChannel(ADC_HandleTypeDef* hadc, ADC_MultiModeTypeDef* m
1276:Drivers/STM32F1xx_HAL_Driver/Src/stm32f1xx_hal_adc_ex.c **** {
 1714              		.loc 1 1276 0
 1715              		.cfi_startproc
 1716              		@ args = 0, pretend = 0, frame = 0
 1717              		@ frame_needed = 0, uses_anonymous_args = 0
 1718              		@ link register save eliminated.
 1719              	.LVL119:
1277:Drivers/STM32F1xx_HAL_Driver/Src/stm32f1xx_hal_adc_ex.c ****   HAL_StatusTypeDef tmp_hal_status = HAL_OK;
1278:Drivers/STM32F1xx_HAL_Driver/Src/stm32f1xx_hal_adc_ex.c ****   ADC_HandleTypeDef tmphadcSlave;
1279:Drivers/STM32F1xx_HAL_Driver/Src/stm32f1xx_hal_adc_ex.c ****   
1280:Drivers/STM32F1xx_HAL_Driver/Src/stm32f1xx_hal_adc_ex.c ****   /* Check the parameters */
1281:Drivers/STM32F1xx_HAL_Driver/Src/stm32f1xx_hal_adc_ex.c ****   assert_param(IS_ADC_MULTIMODE_MASTER_INSTANCE(hadc->Instance));
1282:Drivers/STM32F1xx_HAL_Driver/Src/stm32f1xx_hal_adc_ex.c ****   assert_param(IS_ADC_MODE(multimode->Mode));
1283:Drivers/STM32F1xx_HAL_Driver/Src/stm32f1xx_hal_adc_ex.c ****   
1284:Drivers/STM32F1xx_HAL_Driver/Src/stm32f1xx_hal_adc_ex.c ****   /* Process locked */
1285:Drivers/STM32F1xx_HAL_Driver/Src/stm32f1xx_hal_adc_ex.c ****   __HAL_LOCK(hadc);
 1720              		.loc 1 1285 0
ARM GAS  C:\Users\Areg\AppData\Local\Temp\cc1Gg1eQ.s 			page 54


 1721 0000 90F82430 		ldrb	r3, [r0, #36]	@ zero_extendqisi2
 1722 0004 012B     		cmp	r3, #1
 1723 0006 27D0     		beq	.L151
 1724              		.loc 1 1285 0 is_stmt 0 discriminator 2
 1725 0008 0123     		movs	r3, #1
 1726 000a 80F82430 		strb	r3, [r0, #36]
1286:Drivers/STM32F1xx_HAL_Driver/Src/stm32f1xx_hal_adc_ex.c ****   
1287:Drivers/STM32F1xx_HAL_Driver/Src/stm32f1xx_hal_adc_ex.c ****   /* Set a temporary handle of the ADC slave associated to the ADC master     */
1288:Drivers/STM32F1xx_HAL_Driver/Src/stm32f1xx_hal_adc_ex.c ****   ADC_MULTI_SLAVE(hadc, &tmphadcSlave);
1289:Drivers/STM32F1xx_HAL_Driver/Src/stm32f1xx_hal_adc_ex.c ****   
1290:Drivers/STM32F1xx_HAL_Driver/Src/stm32f1xx_hal_adc_ex.c ****   /* Parameters update conditioned to ADC state:                              */
1291:Drivers/STM32F1xx_HAL_Driver/Src/stm32f1xx_hal_adc_ex.c ****   /* Parameters that can be updated when ADC is disabled or enabled without   */
1292:Drivers/STM32F1xx_HAL_Driver/Src/stm32f1xx_hal_adc_ex.c ****   /* conversion on going on regular group:                                    */
1293:Drivers/STM32F1xx_HAL_Driver/Src/stm32f1xx_hal_adc_ex.c ****   /*  - ADC master and ADC slave DMA configuration                            */
1294:Drivers/STM32F1xx_HAL_Driver/Src/stm32f1xx_hal_adc_ex.c ****   /* Parameters that can be updated only when ADC is disabled:                */
1295:Drivers/STM32F1xx_HAL_Driver/Src/stm32f1xx_hal_adc_ex.c ****   /*  - Multimode mode selection                                              */
1296:Drivers/STM32F1xx_HAL_Driver/Src/stm32f1xx_hal_adc_ex.c ****   /* To optimize code, all multimode settings can be set when both ADCs of    */
1297:Drivers/STM32F1xx_HAL_Driver/Src/stm32f1xx_hal_adc_ex.c ****   /* the common group are in state: disabled.                                 */
1298:Drivers/STM32F1xx_HAL_Driver/Src/stm32f1xx_hal_adc_ex.c ****   if ((ADC_IS_ENABLE(hadc) == RESET)                     &&
 1727              		.loc 1 1298 0 is_stmt 1 discriminator 2
 1728 000e 0368     		ldr	r3, [r0]
 1729 0010 9A68     		ldr	r2, [r3, #8]
 1730 0012 12F0010F 		tst	r2, #1
 1731 0016 10D1     		bne	.L149
1299:Drivers/STM32F1xx_HAL_Driver/Src/stm32f1xx_hal_adc_ex.c ****       (ADC_IS_ENABLE(&tmphadcSlave) == RESET)            &&
 1732              		.loc 1 1299 0 discriminator 1
 1733 0018 114A     		ldr	r2, .L155
 1734 001a 9268     		ldr	r2, [r2, #8]
1298:Drivers/STM32F1xx_HAL_Driver/Src/stm32f1xx_hal_adc_ex.c ****       (ADC_IS_ENABLE(&tmphadcSlave) == RESET)            &&
 1735              		.loc 1 1298 0 discriminator 1
 1736 001c 12F0010F 		tst	r2, #1
 1737 0020 0BD1     		bne	.L149
 1738              		.loc 1 1299 0
 1739 0022 104A     		ldr	r2, .L155+4
 1740 0024 9342     		cmp	r3, r2
 1741 0026 08D1     		bne	.L149
1276:Drivers/STM32F1xx_HAL_Driver/Src/stm32f1xx_hal_adc_ex.c ****   HAL_StatusTypeDef tmp_hal_status = HAL_OK;
 1742              		.loc 1 1276 0
 1743 0028 10B4     		push	{r4}
 1744              	.LCFI28:
 1745              		.cfi_def_cfa_offset 4
 1746              		.cfi_offset 4, -4
1300:Drivers/STM32F1xx_HAL_Driver/Src/stm32f1xx_hal_adc_ex.c ****       (IS_ADC_MULTIMODE_MASTER_INSTANCE(hadc->Instance))   )
1301:Drivers/STM32F1xx_HAL_Driver/Src/stm32f1xx_hal_adc_ex.c ****   {
1302:Drivers/STM32F1xx_HAL_Driver/Src/stm32f1xx_hal_adc_ex.c ****     MODIFY_REG(hadc->Instance->CR1,
 1747              		.loc 1 1302 0
 1748 002a 5A68     		ldr	r2, [r3, #4]
 1749 002c 22F47024 		bic	r4, r2, #983040
 1750 0030 0A68     		ldr	r2, [r1]
 1751 0032 2243     		orrs	r2, r2, r4
 1752 0034 5A60     		str	r2, [r3, #4]
1277:Drivers/STM32F1xx_HAL_Driver/Src/stm32f1xx_hal_adc_ex.c ****   ADC_HandleTypeDef tmphadcSlave;
 1753              		.loc 1 1277 0
 1754 0036 0023     		movs	r3, #0
 1755              		.loc 1 1302 0
 1756 0038 09E0     		b	.L150
 1757              	.L149:
ARM GAS  C:\Users\Areg\AppData\Local\Temp\cc1Gg1eQ.s 			page 55


 1758              	.LCFI29:
 1759              		.cfi_def_cfa_offset 0
 1760              		.cfi_restore 4
1303:Drivers/STM32F1xx_HAL_Driver/Src/stm32f1xx_hal_adc_ex.c ****                ADC_CR1_DUALMOD    ,
1304:Drivers/STM32F1xx_HAL_Driver/Src/stm32f1xx_hal_adc_ex.c ****                multimode->Mode     );
1305:Drivers/STM32F1xx_HAL_Driver/Src/stm32f1xx_hal_adc_ex.c ****   }
1306:Drivers/STM32F1xx_HAL_Driver/Src/stm32f1xx_hal_adc_ex.c ****   /* If one of the ADC sharing the same common group is enabled, no update    */
1307:Drivers/STM32F1xx_HAL_Driver/Src/stm32f1xx_hal_adc_ex.c ****   /* could be done on neither of the multimode structure parameters.          */
1308:Drivers/STM32F1xx_HAL_Driver/Src/stm32f1xx_hal_adc_ex.c ****   else
1309:Drivers/STM32F1xx_HAL_Driver/Src/stm32f1xx_hal_adc_ex.c ****   {
1310:Drivers/STM32F1xx_HAL_Driver/Src/stm32f1xx_hal_adc_ex.c ****     /* Update ADC state machine to error */
1311:Drivers/STM32F1xx_HAL_Driver/Src/stm32f1xx_hal_adc_ex.c ****     SET_BIT(hadc->State, HAL_ADC_STATE_ERROR_CONFIG);
 1761              		.loc 1 1311 0
 1762 003a 836A     		ldr	r3, [r0, #40]
 1763 003c 43F02003 		orr	r3, r3, #32
 1764 0040 8362     		str	r3, [r0, #40]
 1765              	.LVL120:
1312:Drivers/STM32F1xx_HAL_Driver/Src/stm32f1xx_hal_adc_ex.c ****     
1313:Drivers/STM32F1xx_HAL_Driver/Src/stm32f1xx_hal_adc_ex.c ****     tmp_hal_status = HAL_ERROR;
 1766              		.loc 1 1313 0
 1767 0042 0123     		movs	r3, #1
 1768              	.LVL121:
1314:Drivers/STM32F1xx_HAL_Driver/Src/stm32f1xx_hal_adc_ex.c ****   }
1315:Drivers/STM32F1xx_HAL_Driver/Src/stm32f1xx_hal_adc_ex.c ****     
1316:Drivers/STM32F1xx_HAL_Driver/Src/stm32f1xx_hal_adc_ex.c ****     
1317:Drivers/STM32F1xx_HAL_Driver/Src/stm32f1xx_hal_adc_ex.c ****   /* Process unlocked */
1318:Drivers/STM32F1xx_HAL_Driver/Src/stm32f1xx_hal_adc_ex.c ****   __HAL_UNLOCK(hadc);
 1769              		.loc 1 1318 0
 1770 0044 0022     		movs	r2, #0
 1771 0046 80F82420 		strb	r2, [r0, #36]
1319:Drivers/STM32F1xx_HAL_Driver/Src/stm32f1xx_hal_adc_ex.c ****   
1320:Drivers/STM32F1xx_HAL_Driver/Src/stm32f1xx_hal_adc_ex.c ****   /* Return function status */
1321:Drivers/STM32F1xx_HAL_Driver/Src/stm32f1xx_hal_adc_ex.c ****   return tmp_hal_status;
 1772              		.loc 1 1321 0
 1773 004a 1846     		mov	r0, r3
 1774              	.LVL122:
1322:Drivers/STM32F1xx_HAL_Driver/Src/stm32f1xx_hal_adc_ex.c **** } 
 1775              		.loc 1 1322 0
 1776 004c 7047     		bx	lr
 1777              	.LVL123:
 1778              	.L150:
 1779              	.LCFI30:
 1780              		.cfi_def_cfa_offset 4
 1781              		.cfi_offset 4, -4
1318:Drivers/STM32F1xx_HAL_Driver/Src/stm32f1xx_hal_adc_ex.c ****   
 1782              		.loc 1 1318 0
 1783 004e 0022     		movs	r2, #0
 1784 0050 80F82420 		strb	r2, [r0, #36]
1321:Drivers/STM32F1xx_HAL_Driver/Src/stm32f1xx_hal_adc_ex.c **** } 
 1785              		.loc 1 1321 0
 1786 0054 1846     		mov	r0, r3
 1787              	.LVL124:
 1788 0056 01E0     		b	.L148
 1789              	.LVL125:
 1790              	.L151:
 1791              	.LCFI31:
 1792              		.cfi_def_cfa_offset 0
ARM GAS  C:\Users\Areg\AppData\Local\Temp\cc1Gg1eQ.s 			page 56


 1793              		.cfi_restore 4
1285:Drivers/STM32F1xx_HAL_Driver/Src/stm32f1xx_hal_adc_ex.c ****   
 1794              		.loc 1 1285 0
 1795 0058 0220     		movs	r0, #2
 1796              	.LVL126:
 1797 005a 7047     		bx	lr
 1798              	.LVL127:
 1799              	.L148:
 1800              	.LCFI32:
 1801              		.cfi_def_cfa_offset 4
 1802              		.cfi_offset 4, -4
 1803              		.loc 1 1322 0
 1804 005c 10BC     		pop	{r4}
 1805              	.LCFI33:
 1806              		.cfi_restore 4
 1807              		.cfi_def_cfa_offset 0
 1808 005e 7047     		bx	lr
 1809              	.L156:
 1810              		.align	2
 1811              	.L155:
 1812 0060 00280140 		.word	1073817600
 1813 0064 00240140 		.word	1073816576
 1814              		.cfi_endproc
 1815              	.LFE76:
 1817              		.text
 1818              	.Letext0:
 1819              		.file 2 "d:\\stm32\\gcc-arm\\arm-none-eabi\\include\\machine\\_default_types.h"
 1820              		.file 3 "d:\\stm32\\gcc-arm\\arm-none-eabi\\include\\sys\\_stdint.h"
 1821              		.file 4 "Drivers/CMSIS/Device/ST/STM32F1xx/Include/stm32f103xe.h"
 1822              		.file 5 "Drivers/CMSIS/Device/ST/STM32F1xx/Include/stm32f1xx.h"
 1823              		.file 6 "Drivers/STM32F1xx_HAL_Driver/Inc/stm32f1xx_hal_def.h"
 1824              		.file 7 "Drivers/STM32F1xx_HAL_Driver/Inc/stm32f1xx_hal_dma.h"
 1825              		.file 8 "Drivers/STM32F1xx_HAL_Driver/Inc/stm32f1xx_hal_adc.h"
 1826              		.file 9 "Drivers/STM32F1xx_HAL_Driver/Inc/stm32f1xx_hal_adc_ex.h"
 1827              		.file 10 "Drivers/CMSIS/Include/core_cm3.h"
 1828              		.file 11 "Drivers/CMSIS/Device/ST/STM32F1xx/Include/system_stm32f1xx.h"
 1829              		.file 12 "Drivers/STM32F1xx_HAL_Driver/Inc/stm32f1xx_hal_rcc_ex.h"
 1830              		.file 13 "Drivers/STM32F1xx_HAL_Driver/Inc/stm32f1xx_hal.h"
ARM GAS  C:\Users\Areg\AppData\Local\Temp\cc1Gg1eQ.s 			page 57

