ARM GAS  C:\Users\Areg\AppData\Local\Temp\ccbt8Yka.s 			page 1


   1              		.syntax unified
   2              		.cpu cortex-m3
   3              		.fpu softvfp
   4              		.eabi_attribute 20, 1
   5              		.eabi_attribute 21, 1
   6              		.eabi_attribute 23, 3
   7              		.eabi_attribute 24, 1
   8              		.eabi_attribute 25, 1
   9              		.eabi_attribute 26, 1
  10              		.eabi_attribute 30, 1
  11              		.eabi_attribute 34, 1
  12              		.eabi_attribute 18, 4
  13              		.thumb
  14              		.syntax unified
  15              		.file	"stm32f1xx_hal_pwr.c"
  16              		.text
  17              	.Ltext0:
  18              		.cfi_sections	.debug_frame
  19              		.section	.text.PWR_OverloadWfe,"ax",%progbits
  20              		.align	2
  21              		.thumb
  22              		.thumb_func
  24              	PWR_OverloadWfe:
  25              	.LFB64:
  26              		.file 1 "Drivers/STM32F1xx_HAL_Driver/Src/stm32f1xx_hal_pwr.c"
   1:Drivers/STM32F1xx_HAL_Driver/Src/stm32f1xx_hal_pwr.c **** /**
   2:Drivers/STM32F1xx_HAL_Driver/Src/stm32f1xx_hal_pwr.c ****   ******************************************************************************
   3:Drivers/STM32F1xx_HAL_Driver/Src/stm32f1xx_hal_pwr.c ****   * @file    stm32f1xx_hal_pwr.c
   4:Drivers/STM32F1xx_HAL_Driver/Src/stm32f1xx_hal_pwr.c ****   * @author  MCD Application Team
   5:Drivers/STM32F1xx_HAL_Driver/Src/stm32f1xx_hal_pwr.c ****   * @version V1.1.1
   6:Drivers/STM32F1xx_HAL_Driver/Src/stm32f1xx_hal_pwr.c ****   * @date    12-May-2017
   7:Drivers/STM32F1xx_HAL_Driver/Src/stm32f1xx_hal_pwr.c ****   * @brief   PWR HAL module driver.
   8:Drivers/STM32F1xx_HAL_Driver/Src/stm32f1xx_hal_pwr.c ****   *
   9:Drivers/STM32F1xx_HAL_Driver/Src/stm32f1xx_hal_pwr.c ****   *          This file provides firmware functions to manage the following
  10:Drivers/STM32F1xx_HAL_Driver/Src/stm32f1xx_hal_pwr.c ****   *          functionalities of the Power Controller (PWR) peripheral:
  11:Drivers/STM32F1xx_HAL_Driver/Src/stm32f1xx_hal_pwr.c ****   *           + Initialization/de-initialization functions
  12:Drivers/STM32F1xx_HAL_Driver/Src/stm32f1xx_hal_pwr.c ****   *           + Peripheral Control functions 
  13:Drivers/STM32F1xx_HAL_Driver/Src/stm32f1xx_hal_pwr.c ****   *
  14:Drivers/STM32F1xx_HAL_Driver/Src/stm32f1xx_hal_pwr.c ****   ******************************************************************************
  15:Drivers/STM32F1xx_HAL_Driver/Src/stm32f1xx_hal_pwr.c ****   * @attention
  16:Drivers/STM32F1xx_HAL_Driver/Src/stm32f1xx_hal_pwr.c ****   *
  17:Drivers/STM32F1xx_HAL_Driver/Src/stm32f1xx_hal_pwr.c ****   * <h2><center>&copy; COPYRIGHT(c) 2016 STMicroelectronics</center></h2>
  18:Drivers/STM32F1xx_HAL_Driver/Src/stm32f1xx_hal_pwr.c ****   *
  19:Drivers/STM32F1xx_HAL_Driver/Src/stm32f1xx_hal_pwr.c ****   * Redistribution and use in source and binary forms, with or without modification,
  20:Drivers/STM32F1xx_HAL_Driver/Src/stm32f1xx_hal_pwr.c ****   * are permitted provided that the following conditions are met:
  21:Drivers/STM32F1xx_HAL_Driver/Src/stm32f1xx_hal_pwr.c ****   *   1. Redistributions of source code must retain the above copyright notice,
  22:Drivers/STM32F1xx_HAL_Driver/Src/stm32f1xx_hal_pwr.c ****   *      this list of conditions and the following disclaimer.
  23:Drivers/STM32F1xx_HAL_Driver/Src/stm32f1xx_hal_pwr.c ****   *   2. Redistributions in binary form must reproduce the above copyright notice,
  24:Drivers/STM32F1xx_HAL_Driver/Src/stm32f1xx_hal_pwr.c ****   *      this list of conditions and the following disclaimer in the documentation
  25:Drivers/STM32F1xx_HAL_Driver/Src/stm32f1xx_hal_pwr.c ****   *      and/or other materials provided with the distribution.
  26:Drivers/STM32F1xx_HAL_Driver/Src/stm32f1xx_hal_pwr.c ****   *   3. Neither the name of STMicroelectronics nor the names of its contributors
  27:Drivers/STM32F1xx_HAL_Driver/Src/stm32f1xx_hal_pwr.c ****   *      may be used to endorse or promote products derived from this software
  28:Drivers/STM32F1xx_HAL_Driver/Src/stm32f1xx_hal_pwr.c ****   *      without specific prior written permission.
  29:Drivers/STM32F1xx_HAL_Driver/Src/stm32f1xx_hal_pwr.c ****   *
  30:Drivers/STM32F1xx_HAL_Driver/Src/stm32f1xx_hal_pwr.c ****   * THIS SOFTWARE IS PROVIDED BY THE COPYRIGHT HOLDERS AND CONTRIBUTORS "AS IS"
  31:Drivers/STM32F1xx_HAL_Driver/Src/stm32f1xx_hal_pwr.c ****   * AND ANY EXPRESS OR IMPLIED WARRANTIES, INCLUDING, BUT NOT LIMITED TO, THE
  32:Drivers/STM32F1xx_HAL_Driver/Src/stm32f1xx_hal_pwr.c ****   * IMPLIED WARRANTIES OF MERCHANTABILITY AND FITNESS FOR A PARTICULAR PURPOSE ARE
ARM GAS  C:\Users\Areg\AppData\Local\Temp\ccbt8Yka.s 			page 2


  33:Drivers/STM32F1xx_HAL_Driver/Src/stm32f1xx_hal_pwr.c ****   * DISCLAIMED. IN NO EVENT SHALL THE COPYRIGHT HOLDER OR CONTRIBUTORS BE LIABLE
  34:Drivers/STM32F1xx_HAL_Driver/Src/stm32f1xx_hal_pwr.c ****   * FOR ANY DIRECT, INDIRECT, INCIDENTAL, SPECIAL, EXEMPLARY, OR CONSEQUENTIAL
  35:Drivers/STM32F1xx_HAL_Driver/Src/stm32f1xx_hal_pwr.c ****   * DAMAGES (INCLUDING, BUT NOT LIMITED TO, PROCUREMENT OF SUBSTITUTE GOODS OR
  36:Drivers/STM32F1xx_HAL_Driver/Src/stm32f1xx_hal_pwr.c ****   * SERVICES; LOSS OF USE, DATA, OR PROFITS; OR BUSINESS INTERRUPTION) HOWEVER
  37:Drivers/STM32F1xx_HAL_Driver/Src/stm32f1xx_hal_pwr.c ****   * CAUSED AND ON ANY THEORY OF LIABILITY, WHETHER IN CONTRACT, STRICT LIABILITY,
  38:Drivers/STM32F1xx_HAL_Driver/Src/stm32f1xx_hal_pwr.c ****   * OR TORT (INCLUDING NEGLIGENCE OR OTHERWISE) ARISING IN ANY WAY OUT OF THE USE
  39:Drivers/STM32F1xx_HAL_Driver/Src/stm32f1xx_hal_pwr.c ****   * OF THIS SOFTWARE, EVEN IF ADVISED OF THE POSSIBILITY OF SUCH DAMAGE.
  40:Drivers/STM32F1xx_HAL_Driver/Src/stm32f1xx_hal_pwr.c ****   *
  41:Drivers/STM32F1xx_HAL_Driver/Src/stm32f1xx_hal_pwr.c ****   ******************************************************************************
  42:Drivers/STM32F1xx_HAL_Driver/Src/stm32f1xx_hal_pwr.c ****   */
  43:Drivers/STM32F1xx_HAL_Driver/Src/stm32f1xx_hal_pwr.c **** 
  44:Drivers/STM32F1xx_HAL_Driver/Src/stm32f1xx_hal_pwr.c **** /* Includes ------------------------------------------------------------------*/
  45:Drivers/STM32F1xx_HAL_Driver/Src/stm32f1xx_hal_pwr.c **** #include "stm32f1xx_hal.h"
  46:Drivers/STM32F1xx_HAL_Driver/Src/stm32f1xx_hal_pwr.c **** 
  47:Drivers/STM32F1xx_HAL_Driver/Src/stm32f1xx_hal_pwr.c **** /** @addtogroup STM32F1xx_HAL_Driver
  48:Drivers/STM32F1xx_HAL_Driver/Src/stm32f1xx_hal_pwr.c ****   * @{
  49:Drivers/STM32F1xx_HAL_Driver/Src/stm32f1xx_hal_pwr.c ****   */
  50:Drivers/STM32F1xx_HAL_Driver/Src/stm32f1xx_hal_pwr.c **** 
  51:Drivers/STM32F1xx_HAL_Driver/Src/stm32f1xx_hal_pwr.c **** /** @defgroup PWR PWR
  52:Drivers/STM32F1xx_HAL_Driver/Src/stm32f1xx_hal_pwr.c ****   * @brief    PWR HAL module driver
  53:Drivers/STM32F1xx_HAL_Driver/Src/stm32f1xx_hal_pwr.c ****   * @{
  54:Drivers/STM32F1xx_HAL_Driver/Src/stm32f1xx_hal_pwr.c ****   */
  55:Drivers/STM32F1xx_HAL_Driver/Src/stm32f1xx_hal_pwr.c **** 
  56:Drivers/STM32F1xx_HAL_Driver/Src/stm32f1xx_hal_pwr.c **** #ifdef HAL_PWR_MODULE_ENABLED
  57:Drivers/STM32F1xx_HAL_Driver/Src/stm32f1xx_hal_pwr.c **** 
  58:Drivers/STM32F1xx_HAL_Driver/Src/stm32f1xx_hal_pwr.c **** /* Private typedef -----------------------------------------------------------*/
  59:Drivers/STM32F1xx_HAL_Driver/Src/stm32f1xx_hal_pwr.c **** /* Private define ------------------------------------------------------------*/
  60:Drivers/STM32F1xx_HAL_Driver/Src/stm32f1xx_hal_pwr.c **** 
  61:Drivers/STM32F1xx_HAL_Driver/Src/stm32f1xx_hal_pwr.c **** /** @defgroup PWR_Private_Constants PWR Private Constants
  62:Drivers/STM32F1xx_HAL_Driver/Src/stm32f1xx_hal_pwr.c ****   * @{
  63:Drivers/STM32F1xx_HAL_Driver/Src/stm32f1xx_hal_pwr.c ****   */
  64:Drivers/STM32F1xx_HAL_Driver/Src/stm32f1xx_hal_pwr.c ****   
  65:Drivers/STM32F1xx_HAL_Driver/Src/stm32f1xx_hal_pwr.c **** /** @defgroup PWR_PVD_Mode_Mask PWR PVD Mode Mask
  66:Drivers/STM32F1xx_HAL_Driver/Src/stm32f1xx_hal_pwr.c ****   * @{
  67:Drivers/STM32F1xx_HAL_Driver/Src/stm32f1xx_hal_pwr.c ****   */ 
  68:Drivers/STM32F1xx_HAL_Driver/Src/stm32f1xx_hal_pwr.c **** #define PVD_MODE_IT               0x00010000U
  69:Drivers/STM32F1xx_HAL_Driver/Src/stm32f1xx_hal_pwr.c **** #define PVD_MODE_EVT              0x00020000U
  70:Drivers/STM32F1xx_HAL_Driver/Src/stm32f1xx_hal_pwr.c **** #define PVD_RISING_EDGE           0x00000001U
  71:Drivers/STM32F1xx_HAL_Driver/Src/stm32f1xx_hal_pwr.c **** #define PVD_FALLING_EDGE          0x00000002U
  72:Drivers/STM32F1xx_HAL_Driver/Src/stm32f1xx_hal_pwr.c **** /**
  73:Drivers/STM32F1xx_HAL_Driver/Src/stm32f1xx_hal_pwr.c ****   * @}
  74:Drivers/STM32F1xx_HAL_Driver/Src/stm32f1xx_hal_pwr.c ****   */
  75:Drivers/STM32F1xx_HAL_Driver/Src/stm32f1xx_hal_pwr.c **** 
  76:Drivers/STM32F1xx_HAL_Driver/Src/stm32f1xx_hal_pwr.c **** 
  77:Drivers/STM32F1xx_HAL_Driver/Src/stm32f1xx_hal_pwr.c **** /** @defgroup PWR_register_alias_address PWR Register alias address
  78:Drivers/STM32F1xx_HAL_Driver/Src/stm32f1xx_hal_pwr.c ****   * @{
  79:Drivers/STM32F1xx_HAL_Driver/Src/stm32f1xx_hal_pwr.c ****   */ 
  80:Drivers/STM32F1xx_HAL_Driver/Src/stm32f1xx_hal_pwr.c **** /* ------------- PWR registers bit address in the alias region ---------------*/
  81:Drivers/STM32F1xx_HAL_Driver/Src/stm32f1xx_hal_pwr.c **** #define PWR_OFFSET               (PWR_BASE - PERIPH_BASE)
  82:Drivers/STM32F1xx_HAL_Driver/Src/stm32f1xx_hal_pwr.c **** #define PWR_CR_OFFSET            0x00U
  83:Drivers/STM32F1xx_HAL_Driver/Src/stm32f1xx_hal_pwr.c **** #define PWR_CSR_OFFSET           0x04U
  84:Drivers/STM32F1xx_HAL_Driver/Src/stm32f1xx_hal_pwr.c **** #define PWR_CR_OFFSET_BB         (PWR_OFFSET + PWR_CR_OFFSET)
  85:Drivers/STM32F1xx_HAL_Driver/Src/stm32f1xx_hal_pwr.c **** #define PWR_CSR_OFFSET_BB        (PWR_OFFSET + PWR_CSR_OFFSET)
  86:Drivers/STM32F1xx_HAL_Driver/Src/stm32f1xx_hal_pwr.c **** /**
  87:Drivers/STM32F1xx_HAL_Driver/Src/stm32f1xx_hal_pwr.c ****   * @}
  88:Drivers/STM32F1xx_HAL_Driver/Src/stm32f1xx_hal_pwr.c ****   */
  89:Drivers/STM32F1xx_HAL_Driver/Src/stm32f1xx_hal_pwr.c ****    
ARM GAS  C:\Users\Areg\AppData\Local\Temp\ccbt8Yka.s 			page 3


  90:Drivers/STM32F1xx_HAL_Driver/Src/stm32f1xx_hal_pwr.c **** /** @defgroup PWR_CR_register_alias PWR CR Register alias address
  91:Drivers/STM32F1xx_HAL_Driver/Src/stm32f1xx_hal_pwr.c ****   * @{
  92:Drivers/STM32F1xx_HAL_Driver/Src/stm32f1xx_hal_pwr.c ****   */  
  93:Drivers/STM32F1xx_HAL_Driver/Src/stm32f1xx_hal_pwr.c **** /* --- CR Register ---*/
  94:Drivers/STM32F1xx_HAL_Driver/Src/stm32f1xx_hal_pwr.c **** /* Alias word address of LPSDSR bit */
  95:Drivers/STM32F1xx_HAL_Driver/Src/stm32f1xx_hal_pwr.c **** #define LPSDSR_BIT_NUMBER        PWR_CR_LPDS_Pos
  96:Drivers/STM32F1xx_HAL_Driver/Src/stm32f1xx_hal_pwr.c **** #define CR_LPSDSR_BB             ((uint32_t)(PERIPH_BB_BASE + (PWR_CR_OFFSET_BB * 32U) + (LPSDSR_BI
  97:Drivers/STM32F1xx_HAL_Driver/Src/stm32f1xx_hal_pwr.c **** 
  98:Drivers/STM32F1xx_HAL_Driver/Src/stm32f1xx_hal_pwr.c **** /* Alias word address of DBP bit */
  99:Drivers/STM32F1xx_HAL_Driver/Src/stm32f1xx_hal_pwr.c **** #define DBP_BIT_NUMBER            PWR_CR_DBP_Pos
 100:Drivers/STM32F1xx_HAL_Driver/Src/stm32f1xx_hal_pwr.c **** #define CR_DBP_BB                ((uint32_t)(PERIPH_BB_BASE + (PWR_CR_OFFSET_BB * 32U) + (DBP_BIT_N
 101:Drivers/STM32F1xx_HAL_Driver/Src/stm32f1xx_hal_pwr.c **** 
 102:Drivers/STM32F1xx_HAL_Driver/Src/stm32f1xx_hal_pwr.c **** /* Alias word address of PVDE bit */
 103:Drivers/STM32F1xx_HAL_Driver/Src/stm32f1xx_hal_pwr.c **** #define PVDE_BIT_NUMBER           PWR_CR_PVDE_Pos
 104:Drivers/STM32F1xx_HAL_Driver/Src/stm32f1xx_hal_pwr.c **** #define CR_PVDE_BB               ((uint32_t)(PERIPH_BB_BASE + (PWR_CR_OFFSET_BB * 32U) + (PVDE_BIT_
 105:Drivers/STM32F1xx_HAL_Driver/Src/stm32f1xx_hal_pwr.c **** 
 106:Drivers/STM32F1xx_HAL_Driver/Src/stm32f1xx_hal_pwr.c **** /**
 107:Drivers/STM32F1xx_HAL_Driver/Src/stm32f1xx_hal_pwr.c ****   * @}
 108:Drivers/STM32F1xx_HAL_Driver/Src/stm32f1xx_hal_pwr.c ****   */
 109:Drivers/STM32F1xx_HAL_Driver/Src/stm32f1xx_hal_pwr.c **** 
 110:Drivers/STM32F1xx_HAL_Driver/Src/stm32f1xx_hal_pwr.c **** /** @defgroup PWR_CSR_register_alias PWR CSR Register alias address
 111:Drivers/STM32F1xx_HAL_Driver/Src/stm32f1xx_hal_pwr.c ****   * @{
 112:Drivers/STM32F1xx_HAL_Driver/Src/stm32f1xx_hal_pwr.c ****   */
 113:Drivers/STM32F1xx_HAL_Driver/Src/stm32f1xx_hal_pwr.c **** 
 114:Drivers/STM32F1xx_HAL_Driver/Src/stm32f1xx_hal_pwr.c **** /* --- CSR Register ---*/
 115:Drivers/STM32F1xx_HAL_Driver/Src/stm32f1xx_hal_pwr.c **** /* Alias word address of EWUP1 bit */
 116:Drivers/STM32F1xx_HAL_Driver/Src/stm32f1xx_hal_pwr.c **** #define CSR_EWUP_BB(VAL)         ((uint32_t)(PERIPH_BB_BASE + (PWR_CSR_OFFSET_BB * 32U) + (POSITION
 117:Drivers/STM32F1xx_HAL_Driver/Src/stm32f1xx_hal_pwr.c **** /**
 118:Drivers/STM32F1xx_HAL_Driver/Src/stm32f1xx_hal_pwr.c ****   * @}
 119:Drivers/STM32F1xx_HAL_Driver/Src/stm32f1xx_hal_pwr.c ****   */
 120:Drivers/STM32F1xx_HAL_Driver/Src/stm32f1xx_hal_pwr.c ****   
 121:Drivers/STM32F1xx_HAL_Driver/Src/stm32f1xx_hal_pwr.c **** /**
 122:Drivers/STM32F1xx_HAL_Driver/Src/stm32f1xx_hal_pwr.c ****   * @}
 123:Drivers/STM32F1xx_HAL_Driver/Src/stm32f1xx_hal_pwr.c ****   */
 124:Drivers/STM32F1xx_HAL_Driver/Src/stm32f1xx_hal_pwr.c **** 
 125:Drivers/STM32F1xx_HAL_Driver/Src/stm32f1xx_hal_pwr.c **** /* Private variables ---------------------------------------------------------*/
 126:Drivers/STM32F1xx_HAL_Driver/Src/stm32f1xx_hal_pwr.c **** /* Private function prototypes -----------------------------------------------*/
 127:Drivers/STM32F1xx_HAL_Driver/Src/stm32f1xx_hal_pwr.c **** /** @defgroup PWR_Private_Functions PWR Private Functions
 128:Drivers/STM32F1xx_HAL_Driver/Src/stm32f1xx_hal_pwr.c ****  * brief   WFE cortex command overloaded for HAL_PWR_EnterSTOPMode usage only (see Workaround secti
 129:Drivers/STM32F1xx_HAL_Driver/Src/stm32f1xx_hal_pwr.c ****  * @{
 130:Drivers/STM32F1xx_HAL_Driver/Src/stm32f1xx_hal_pwr.c ****  */
 131:Drivers/STM32F1xx_HAL_Driver/Src/stm32f1xx_hal_pwr.c **** static void PWR_OverloadWfe(void);
 132:Drivers/STM32F1xx_HAL_Driver/Src/stm32f1xx_hal_pwr.c **** 
 133:Drivers/STM32F1xx_HAL_Driver/Src/stm32f1xx_hal_pwr.c **** /* Private functions ---------------------------------------------------------*/
 134:Drivers/STM32F1xx_HAL_Driver/Src/stm32f1xx_hal_pwr.c **** __NOINLINE
 135:Drivers/STM32F1xx_HAL_Driver/Src/stm32f1xx_hal_pwr.c **** static void PWR_OverloadWfe(void)
 136:Drivers/STM32F1xx_HAL_Driver/Src/stm32f1xx_hal_pwr.c **** {
  27              		.loc 1 136 0
  28              		.cfi_startproc
  29              		@ args = 0, pretend = 0, frame = 0
  30              		@ frame_needed = 0, uses_anonymous_args = 0
  31              		@ link register save eliminated.
 137:Drivers/STM32F1xx_HAL_Driver/Src/stm32f1xx_hal_pwr.c ****   __asm volatile( "wfe" );
  32              		.loc 1 137 0
  33              		.syntax unified
  34              	@ 137 "Drivers/STM32F1xx_HAL_Driver/Src/stm32f1xx_hal_pwr.c" 1
  35 0000 20BF     		wfe
ARM GAS  C:\Users\Areg\AppData\Local\Temp\ccbt8Yka.s 			page 4


  36              	@ 0 "" 2
 138:Drivers/STM32F1xx_HAL_Driver/Src/stm32f1xx_hal_pwr.c ****   __asm volatile( "nop" );
  37              		.loc 1 138 0
  38              	@ 138 "Drivers/STM32F1xx_HAL_Driver/Src/stm32f1xx_hal_pwr.c" 1
  39 0002 00BF     		nop
  40              	@ 0 "" 2
  41              		.thumb
  42              		.syntax unified
  43 0004 7047     		bx	lr
  44              		.cfi_endproc
  45              	.LFE64:
  47 0006 00BF     		.section	.text.HAL_PWR_DeInit,"ax",%progbits
  48              		.align	2
  49              		.global	HAL_PWR_DeInit
  50              		.thumb
  51              		.thumb_func
  53              	HAL_PWR_DeInit:
  54              	.LFB65:
 139:Drivers/STM32F1xx_HAL_Driver/Src/stm32f1xx_hal_pwr.c **** }
 140:Drivers/STM32F1xx_HAL_Driver/Src/stm32f1xx_hal_pwr.c **** 
 141:Drivers/STM32F1xx_HAL_Driver/Src/stm32f1xx_hal_pwr.c **** /**
 142:Drivers/STM32F1xx_HAL_Driver/Src/stm32f1xx_hal_pwr.c ****   * @}
 143:Drivers/STM32F1xx_HAL_Driver/Src/stm32f1xx_hal_pwr.c ****   */
 144:Drivers/STM32F1xx_HAL_Driver/Src/stm32f1xx_hal_pwr.c **** 
 145:Drivers/STM32F1xx_HAL_Driver/Src/stm32f1xx_hal_pwr.c **** 
 146:Drivers/STM32F1xx_HAL_Driver/Src/stm32f1xx_hal_pwr.c **** /** @defgroup PWR_Exported_Functions PWR Exported Functions
 147:Drivers/STM32F1xx_HAL_Driver/Src/stm32f1xx_hal_pwr.c ****   * @{
 148:Drivers/STM32F1xx_HAL_Driver/Src/stm32f1xx_hal_pwr.c ****   */
 149:Drivers/STM32F1xx_HAL_Driver/Src/stm32f1xx_hal_pwr.c **** 
 150:Drivers/STM32F1xx_HAL_Driver/Src/stm32f1xx_hal_pwr.c **** /** @defgroup PWR_Exported_Functions_Group1 Initialization and de-initialization functions 
 151:Drivers/STM32F1xx_HAL_Driver/Src/stm32f1xx_hal_pwr.c ****   *  @brief   Initialization and de-initialization functions
 152:Drivers/STM32F1xx_HAL_Driver/Src/stm32f1xx_hal_pwr.c ****   *
 153:Drivers/STM32F1xx_HAL_Driver/Src/stm32f1xx_hal_pwr.c **** @verbatim
 154:Drivers/STM32F1xx_HAL_Driver/Src/stm32f1xx_hal_pwr.c ****  ===============================================================================
 155:Drivers/STM32F1xx_HAL_Driver/Src/stm32f1xx_hal_pwr.c ****               ##### Initialization and de-initialization functions #####
 156:Drivers/STM32F1xx_HAL_Driver/Src/stm32f1xx_hal_pwr.c ****  ===============================================================================
 157:Drivers/STM32F1xx_HAL_Driver/Src/stm32f1xx_hal_pwr.c ****     [..]
 158:Drivers/STM32F1xx_HAL_Driver/Src/stm32f1xx_hal_pwr.c ****       After reset, the backup domain (RTC registers, RTC backup data
 159:Drivers/STM32F1xx_HAL_Driver/Src/stm32f1xx_hal_pwr.c ****       registers) is protected against possible unwanted
 160:Drivers/STM32F1xx_HAL_Driver/Src/stm32f1xx_hal_pwr.c ****       write accesses.
 161:Drivers/STM32F1xx_HAL_Driver/Src/stm32f1xx_hal_pwr.c ****       To enable access to the RTC Domain and RTC registers, proceed as follows:
 162:Drivers/STM32F1xx_HAL_Driver/Src/stm32f1xx_hal_pwr.c ****         (+) Enable the Power Controller (PWR) APB1 interface clock using the
 163:Drivers/STM32F1xx_HAL_Driver/Src/stm32f1xx_hal_pwr.c ****             __HAL_RCC_PWR_CLK_ENABLE() macro.
 164:Drivers/STM32F1xx_HAL_Driver/Src/stm32f1xx_hal_pwr.c ****         (+) Enable access to RTC domain using the HAL_PWR_EnableBkUpAccess() function.
 165:Drivers/STM32F1xx_HAL_Driver/Src/stm32f1xx_hal_pwr.c **** 
 166:Drivers/STM32F1xx_HAL_Driver/Src/stm32f1xx_hal_pwr.c **** @endverbatim
 167:Drivers/STM32F1xx_HAL_Driver/Src/stm32f1xx_hal_pwr.c ****   * @{
 168:Drivers/STM32F1xx_HAL_Driver/Src/stm32f1xx_hal_pwr.c ****   */
 169:Drivers/STM32F1xx_HAL_Driver/Src/stm32f1xx_hal_pwr.c **** 
 170:Drivers/STM32F1xx_HAL_Driver/Src/stm32f1xx_hal_pwr.c **** /**
 171:Drivers/STM32F1xx_HAL_Driver/Src/stm32f1xx_hal_pwr.c ****   * @brief  Deinitializes the PWR peripheral registers to their default reset values.  
 172:Drivers/STM32F1xx_HAL_Driver/Src/stm32f1xx_hal_pwr.c ****   * @retval None
 173:Drivers/STM32F1xx_HAL_Driver/Src/stm32f1xx_hal_pwr.c ****   */
 174:Drivers/STM32F1xx_HAL_Driver/Src/stm32f1xx_hal_pwr.c **** void HAL_PWR_DeInit(void)
 175:Drivers/STM32F1xx_HAL_Driver/Src/stm32f1xx_hal_pwr.c **** {
  55              		.loc 1 175 0
  56              		.cfi_startproc
ARM GAS  C:\Users\Areg\AppData\Local\Temp\ccbt8Yka.s 			page 5


  57              		@ args = 0, pretend = 0, frame = 0
  58              		@ frame_needed = 0, uses_anonymous_args = 0
  59              		@ link register save eliminated.
 176:Drivers/STM32F1xx_HAL_Driver/Src/stm32f1xx_hal_pwr.c ****   __HAL_RCC_PWR_FORCE_RESET();
  60              		.loc 1 176 0
  61 0000 044B     		ldr	r3, .L3
  62 0002 1A69     		ldr	r2, [r3, #16]
  63 0004 42F08052 		orr	r2, r2, #268435456
  64 0008 1A61     		str	r2, [r3, #16]
 177:Drivers/STM32F1xx_HAL_Driver/Src/stm32f1xx_hal_pwr.c ****   __HAL_RCC_PWR_RELEASE_RESET();
  65              		.loc 1 177 0
  66 000a 1A69     		ldr	r2, [r3, #16]
  67 000c 22F08052 		bic	r2, r2, #268435456
  68 0010 1A61     		str	r2, [r3, #16]
  69 0012 7047     		bx	lr
  70              	.L4:
  71              		.align	2
  72              	.L3:
  73 0014 00100240 		.word	1073876992
  74              		.cfi_endproc
  75              	.LFE65:
  77              		.section	.text.HAL_PWR_EnableBkUpAccess,"ax",%progbits
  78              		.align	2
  79              		.global	HAL_PWR_EnableBkUpAccess
  80              		.thumb
  81              		.thumb_func
  83              	HAL_PWR_EnableBkUpAccess:
  84              	.LFB66:
 178:Drivers/STM32F1xx_HAL_Driver/Src/stm32f1xx_hal_pwr.c **** }
 179:Drivers/STM32F1xx_HAL_Driver/Src/stm32f1xx_hal_pwr.c **** 
 180:Drivers/STM32F1xx_HAL_Driver/Src/stm32f1xx_hal_pwr.c **** /**
 181:Drivers/STM32F1xx_HAL_Driver/Src/stm32f1xx_hal_pwr.c ****   * @brief  Enables access to the backup domain (RTC registers, RTC
 182:Drivers/STM32F1xx_HAL_Driver/Src/stm32f1xx_hal_pwr.c ****   *         backup data registers ).
 183:Drivers/STM32F1xx_HAL_Driver/Src/stm32f1xx_hal_pwr.c ****   * @note   If the HSE divided by 128 is used as the RTC clock, the
 184:Drivers/STM32F1xx_HAL_Driver/Src/stm32f1xx_hal_pwr.c ****   *         Backup Domain Access should be kept enabled.
 185:Drivers/STM32F1xx_HAL_Driver/Src/stm32f1xx_hal_pwr.c ****   * @retval None
 186:Drivers/STM32F1xx_HAL_Driver/Src/stm32f1xx_hal_pwr.c ****   */
 187:Drivers/STM32F1xx_HAL_Driver/Src/stm32f1xx_hal_pwr.c **** void HAL_PWR_EnableBkUpAccess(void)
 188:Drivers/STM32F1xx_HAL_Driver/Src/stm32f1xx_hal_pwr.c **** {
  85              		.loc 1 188 0
  86              		.cfi_startproc
  87              		@ args = 0, pretend = 0, frame = 0
  88              		@ frame_needed = 0, uses_anonymous_args = 0
  89              		@ link register save eliminated.
 189:Drivers/STM32F1xx_HAL_Driver/Src/stm32f1xx_hal_pwr.c ****   /* Enable access to RTC and backup registers */
 190:Drivers/STM32F1xx_HAL_Driver/Src/stm32f1xx_hal_pwr.c ****   *(__IO uint32_t *) CR_DBP_BB = (uint32_t)ENABLE;
  90              		.loc 1 190 0
  91 0000 0122     		movs	r2, #1
  92 0002 014B     		ldr	r3, .L6
  93 0004 1A60     		str	r2, [r3]
  94 0006 7047     		bx	lr
  95              	.L7:
  96              		.align	2
  97              	.L6:
  98 0008 20000E42 		.word	1108213792
  99              		.cfi_endproc
 100              	.LFE66:
ARM GAS  C:\Users\Areg\AppData\Local\Temp\ccbt8Yka.s 			page 6


 102              		.section	.text.HAL_PWR_DisableBkUpAccess,"ax",%progbits
 103              		.align	2
 104              		.global	HAL_PWR_DisableBkUpAccess
 105              		.thumb
 106              		.thumb_func
 108              	HAL_PWR_DisableBkUpAccess:
 109              	.LFB67:
 191:Drivers/STM32F1xx_HAL_Driver/Src/stm32f1xx_hal_pwr.c **** }
 192:Drivers/STM32F1xx_HAL_Driver/Src/stm32f1xx_hal_pwr.c **** 
 193:Drivers/STM32F1xx_HAL_Driver/Src/stm32f1xx_hal_pwr.c **** /**
 194:Drivers/STM32F1xx_HAL_Driver/Src/stm32f1xx_hal_pwr.c ****   * @brief  Disables access to the backup domain (RTC registers, RTC
 195:Drivers/STM32F1xx_HAL_Driver/Src/stm32f1xx_hal_pwr.c ****   *         backup data registers).
 196:Drivers/STM32F1xx_HAL_Driver/Src/stm32f1xx_hal_pwr.c ****   * @note   If the HSE divided by 128 is used as the RTC clock, the
 197:Drivers/STM32F1xx_HAL_Driver/Src/stm32f1xx_hal_pwr.c ****   *         Backup Domain Access should be kept enabled.
 198:Drivers/STM32F1xx_HAL_Driver/Src/stm32f1xx_hal_pwr.c ****   * @retval None
 199:Drivers/STM32F1xx_HAL_Driver/Src/stm32f1xx_hal_pwr.c ****   */
 200:Drivers/STM32F1xx_HAL_Driver/Src/stm32f1xx_hal_pwr.c **** void HAL_PWR_DisableBkUpAccess(void)
 201:Drivers/STM32F1xx_HAL_Driver/Src/stm32f1xx_hal_pwr.c **** {
 110              		.loc 1 201 0
 111              		.cfi_startproc
 112              		@ args = 0, pretend = 0, frame = 0
 113              		@ frame_needed = 0, uses_anonymous_args = 0
 114              		@ link register save eliminated.
 202:Drivers/STM32F1xx_HAL_Driver/Src/stm32f1xx_hal_pwr.c ****   /* Disable access to RTC and backup registers */
 203:Drivers/STM32F1xx_HAL_Driver/Src/stm32f1xx_hal_pwr.c ****   *(__IO uint32_t *) CR_DBP_BB = (uint32_t)DISABLE;
 115              		.loc 1 203 0
 116 0000 0022     		movs	r2, #0
 117 0002 014B     		ldr	r3, .L9
 118 0004 1A60     		str	r2, [r3]
 119 0006 7047     		bx	lr
 120              	.L10:
 121              		.align	2
 122              	.L9:
 123 0008 20000E42 		.word	1108213792
 124              		.cfi_endproc
 125              	.LFE67:
 127              		.section	.text.HAL_PWR_ConfigPVD,"ax",%progbits
 128              		.align	2
 129              		.global	HAL_PWR_ConfigPVD
 130              		.thumb
 131              		.thumb_func
 133              	HAL_PWR_ConfigPVD:
 134              	.LFB68:
 204:Drivers/STM32F1xx_HAL_Driver/Src/stm32f1xx_hal_pwr.c **** }
 205:Drivers/STM32F1xx_HAL_Driver/Src/stm32f1xx_hal_pwr.c **** 
 206:Drivers/STM32F1xx_HAL_Driver/Src/stm32f1xx_hal_pwr.c **** /**
 207:Drivers/STM32F1xx_HAL_Driver/Src/stm32f1xx_hal_pwr.c ****   * @}
 208:Drivers/STM32F1xx_HAL_Driver/Src/stm32f1xx_hal_pwr.c ****   */
 209:Drivers/STM32F1xx_HAL_Driver/Src/stm32f1xx_hal_pwr.c **** 
 210:Drivers/STM32F1xx_HAL_Driver/Src/stm32f1xx_hal_pwr.c **** /** @defgroup PWR_Exported_Functions_Group2 Peripheral Control functions 
 211:Drivers/STM32F1xx_HAL_Driver/Src/stm32f1xx_hal_pwr.c ****   * @brief    Low Power modes configuration functions
 212:Drivers/STM32F1xx_HAL_Driver/Src/stm32f1xx_hal_pwr.c ****   *
 213:Drivers/STM32F1xx_HAL_Driver/Src/stm32f1xx_hal_pwr.c **** @verbatim
 214:Drivers/STM32F1xx_HAL_Driver/Src/stm32f1xx_hal_pwr.c ****  ===============================================================================
 215:Drivers/STM32F1xx_HAL_Driver/Src/stm32f1xx_hal_pwr.c ****                  ##### Peripheral Control functions #####
 216:Drivers/STM32F1xx_HAL_Driver/Src/stm32f1xx_hal_pwr.c ****  ===============================================================================
 217:Drivers/STM32F1xx_HAL_Driver/Src/stm32f1xx_hal_pwr.c ****      
ARM GAS  C:\Users\Areg\AppData\Local\Temp\ccbt8Yka.s 			page 7


 218:Drivers/STM32F1xx_HAL_Driver/Src/stm32f1xx_hal_pwr.c ****     *** PVD configuration ***
 219:Drivers/STM32F1xx_HAL_Driver/Src/stm32f1xx_hal_pwr.c ****     =========================
 220:Drivers/STM32F1xx_HAL_Driver/Src/stm32f1xx_hal_pwr.c ****     [..]
 221:Drivers/STM32F1xx_HAL_Driver/Src/stm32f1xx_hal_pwr.c ****       (+) The PVD is used to monitor the VDD power supply by comparing it to a
 222:Drivers/STM32F1xx_HAL_Driver/Src/stm32f1xx_hal_pwr.c ****           threshold selected by the PVD Level (PLS[2:0] bits in the PWR_CR).
 223:Drivers/STM32F1xx_HAL_Driver/Src/stm32f1xx_hal_pwr.c **** 
 224:Drivers/STM32F1xx_HAL_Driver/Src/stm32f1xx_hal_pwr.c ****       (+) A PVDO flag is available to indicate if VDD/VDDA is higher or lower
 225:Drivers/STM32F1xx_HAL_Driver/Src/stm32f1xx_hal_pwr.c ****           than the PVD threshold. This event is internally connected to the EXTI
 226:Drivers/STM32F1xx_HAL_Driver/Src/stm32f1xx_hal_pwr.c ****           line16 and can generate an interrupt if enabled. This is done through
 227:Drivers/STM32F1xx_HAL_Driver/Src/stm32f1xx_hal_pwr.c ****           __HAL_PVD_EXTI_ENABLE_IT() macro.
 228:Drivers/STM32F1xx_HAL_Driver/Src/stm32f1xx_hal_pwr.c ****       (+) The PVD is stopped in Standby mode.
 229:Drivers/STM32F1xx_HAL_Driver/Src/stm32f1xx_hal_pwr.c **** 
 230:Drivers/STM32F1xx_HAL_Driver/Src/stm32f1xx_hal_pwr.c ****     *** WakeUp pin configuration ***
 231:Drivers/STM32F1xx_HAL_Driver/Src/stm32f1xx_hal_pwr.c ****     ================================
 232:Drivers/STM32F1xx_HAL_Driver/Src/stm32f1xx_hal_pwr.c ****     [..]
 233:Drivers/STM32F1xx_HAL_Driver/Src/stm32f1xx_hal_pwr.c ****       (+) WakeUp pin is used to wake up the system from Standby mode. This pin is
 234:Drivers/STM32F1xx_HAL_Driver/Src/stm32f1xx_hal_pwr.c ****           forced in input pull-down configuration and is active on rising edges.
 235:Drivers/STM32F1xx_HAL_Driver/Src/stm32f1xx_hal_pwr.c ****       (+) There is one WakeUp pin:
 236:Drivers/STM32F1xx_HAL_Driver/Src/stm32f1xx_hal_pwr.c ****           WakeUp Pin 1 on PA.00.
 237:Drivers/STM32F1xx_HAL_Driver/Src/stm32f1xx_hal_pwr.c **** 
 238:Drivers/STM32F1xx_HAL_Driver/Src/stm32f1xx_hal_pwr.c ****     [..]
 239:Drivers/STM32F1xx_HAL_Driver/Src/stm32f1xx_hal_pwr.c **** 
 240:Drivers/STM32F1xx_HAL_Driver/Src/stm32f1xx_hal_pwr.c ****     *** Low Power modes configuration ***
 241:Drivers/STM32F1xx_HAL_Driver/Src/stm32f1xx_hal_pwr.c ****     =====================================
 242:Drivers/STM32F1xx_HAL_Driver/Src/stm32f1xx_hal_pwr.c ****      [..]
 243:Drivers/STM32F1xx_HAL_Driver/Src/stm32f1xx_hal_pwr.c ****       The device features 3 low-power modes:
 244:Drivers/STM32F1xx_HAL_Driver/Src/stm32f1xx_hal_pwr.c ****       (+) Sleep mode: CPU clock off, all peripherals including Cortex-M3 core peripherals like 
 245:Drivers/STM32F1xx_HAL_Driver/Src/stm32f1xx_hal_pwr.c ****                       NVIC, SysTick, etc. are kept running
 246:Drivers/STM32F1xx_HAL_Driver/Src/stm32f1xx_hal_pwr.c ****       (+) Stop mode: All clocks are stopped
 247:Drivers/STM32F1xx_HAL_Driver/Src/stm32f1xx_hal_pwr.c ****       (+) Standby mode: 1.8V domain powered off
 248:Drivers/STM32F1xx_HAL_Driver/Src/stm32f1xx_hal_pwr.c ****   
 249:Drivers/STM32F1xx_HAL_Driver/Src/stm32f1xx_hal_pwr.c ****   
 250:Drivers/STM32F1xx_HAL_Driver/Src/stm32f1xx_hal_pwr.c ****    *** Sleep mode ***
 251:Drivers/STM32F1xx_HAL_Driver/Src/stm32f1xx_hal_pwr.c ****    ==================
 252:Drivers/STM32F1xx_HAL_Driver/Src/stm32f1xx_hal_pwr.c ****     [..]
 253:Drivers/STM32F1xx_HAL_Driver/Src/stm32f1xx_hal_pwr.c ****       (+) Entry:
 254:Drivers/STM32F1xx_HAL_Driver/Src/stm32f1xx_hal_pwr.c ****           The Sleep mode is entered by using the HAL_PWR_EnterSLEEPMode(PWR_MAINREGULATOR_ON, PWR_S
 255:Drivers/STM32F1xx_HAL_Driver/Src/stm32f1xx_hal_pwr.c ****               functions with
 256:Drivers/STM32F1xx_HAL_Driver/Src/stm32f1xx_hal_pwr.c ****           (++) PWR_SLEEPENTRY_WFI: enter SLEEP mode with WFI instruction
 257:Drivers/STM32F1xx_HAL_Driver/Src/stm32f1xx_hal_pwr.c ****           (++) PWR_SLEEPENTRY_WFE: enter SLEEP mode with WFE instruction
 258:Drivers/STM32F1xx_HAL_Driver/Src/stm32f1xx_hal_pwr.c ****      
 259:Drivers/STM32F1xx_HAL_Driver/Src/stm32f1xx_hal_pwr.c ****       (+) Exit:
 260:Drivers/STM32F1xx_HAL_Driver/Src/stm32f1xx_hal_pwr.c ****         (++) WFI entry mode, Any peripheral interrupt acknowledged by the nested vectored interrupt
 261:Drivers/STM32F1xx_HAL_Driver/Src/stm32f1xx_hal_pwr.c ****              controller (NVIC) can wake up the device from Sleep mode.
 262:Drivers/STM32F1xx_HAL_Driver/Src/stm32f1xx_hal_pwr.c ****         (++) WFE entry mode, Any wakeup event can wake up the device from Sleep mode.
 263:Drivers/STM32F1xx_HAL_Driver/Src/stm32f1xx_hal_pwr.c ****            (+++) Any peripheral interrupt w/o NVIC configuration & SEVONPEND bit set in the Cortex 
 264:Drivers/STM32F1xx_HAL_Driver/Src/stm32f1xx_hal_pwr.c ****            (+++) Any EXTI Line (Internal or External) configured in Event mode
 265:Drivers/STM32F1xx_HAL_Driver/Src/stm32f1xx_hal_pwr.c **** 
 266:Drivers/STM32F1xx_HAL_Driver/Src/stm32f1xx_hal_pwr.c ****    *** Stop mode ***
 267:Drivers/STM32F1xx_HAL_Driver/Src/stm32f1xx_hal_pwr.c ****    =================
 268:Drivers/STM32F1xx_HAL_Driver/Src/stm32f1xx_hal_pwr.c ****     [..]
 269:Drivers/STM32F1xx_HAL_Driver/Src/stm32f1xx_hal_pwr.c ****       The Stop mode is based on the Cortex-M3 deepsleep mode combined with peripheral
 270:Drivers/STM32F1xx_HAL_Driver/Src/stm32f1xx_hal_pwr.c ****       clock gating. The voltage regulator can be configured either in normal or low-power mode.
 271:Drivers/STM32F1xx_HAL_Driver/Src/stm32f1xx_hal_pwr.c ****       In Stop mode, all clocks in the 1.8 V domain are stopped, the PLL, the HSI and the HSE RC 
 272:Drivers/STM32F1xx_HAL_Driver/Src/stm32f1xx_hal_pwr.c ****       oscillators are disabled. SRAM and register contents are preserved.
 273:Drivers/STM32F1xx_HAL_Driver/Src/stm32f1xx_hal_pwr.c ****       In Stop mode, all I/O pins keep the same state as in Run mode.
 274:Drivers/STM32F1xx_HAL_Driver/Src/stm32f1xx_hal_pwr.c **** 
ARM GAS  C:\Users\Areg\AppData\Local\Temp\ccbt8Yka.s 			page 8


 275:Drivers/STM32F1xx_HAL_Driver/Src/stm32f1xx_hal_pwr.c ****       (+) Entry:
 276:Drivers/STM32F1xx_HAL_Driver/Src/stm32f1xx_hal_pwr.c ****            The Stop mode is entered using the HAL_PWR_EnterSTOPMode(PWR_REGULATOR_VALUE, PWR_SLEEPE
 277:Drivers/STM32F1xx_HAL_Driver/Src/stm32f1xx_hal_pwr.c ****              function with:
 278:Drivers/STM32F1xx_HAL_Driver/Src/stm32f1xx_hal_pwr.c ****           (++) PWR_REGULATOR_VALUE= PWR_MAINREGULATOR_ON: Main regulator ON.
 279:Drivers/STM32F1xx_HAL_Driver/Src/stm32f1xx_hal_pwr.c ****           (++) PWR_REGULATOR_VALUE= PWR_LOWPOWERREGULATOR_ON: Low Power regulator ON.
 280:Drivers/STM32F1xx_HAL_Driver/Src/stm32f1xx_hal_pwr.c ****           (++) PWR_SLEEPENTRY_WFx= PWR_SLEEPENTRY_WFI: enter STOP mode with WFI instruction
 281:Drivers/STM32F1xx_HAL_Driver/Src/stm32f1xx_hal_pwr.c ****           (++) PWR_SLEEPENTRY_WFx= PWR_SLEEPENTRY_WFE: enter STOP mode with WFE instruction
 282:Drivers/STM32F1xx_HAL_Driver/Src/stm32f1xx_hal_pwr.c ****       (+) Exit:
 283:Drivers/STM32F1xx_HAL_Driver/Src/stm32f1xx_hal_pwr.c ****           (++) WFI entry mode, Any EXTI Line (Internal or External) configured in Interrupt mode wi
 284:Drivers/STM32F1xx_HAL_Driver/Src/stm32f1xx_hal_pwr.c ****           (++) WFE entry mode, Any EXTI Line (Internal or External) configured in Event mode.
 285:Drivers/STM32F1xx_HAL_Driver/Src/stm32f1xx_hal_pwr.c **** 
 286:Drivers/STM32F1xx_HAL_Driver/Src/stm32f1xx_hal_pwr.c ****    *** Standby mode ***
 287:Drivers/STM32F1xx_HAL_Driver/Src/stm32f1xx_hal_pwr.c ****    ====================
 288:Drivers/STM32F1xx_HAL_Driver/Src/stm32f1xx_hal_pwr.c ****      [..]
 289:Drivers/STM32F1xx_HAL_Driver/Src/stm32f1xx_hal_pwr.c ****       The Standby mode allows to achieve the lowest power consumption. It is based on the
 290:Drivers/STM32F1xx_HAL_Driver/Src/stm32f1xx_hal_pwr.c ****       Cortex-M3 deepsleep mode, with the voltage regulator disabled. The 1.8 V domain is 
 291:Drivers/STM32F1xx_HAL_Driver/Src/stm32f1xx_hal_pwr.c ****       consequently powered off. The PLL, the HSI oscillator and the HSE oscillator are also 
 292:Drivers/STM32F1xx_HAL_Driver/Src/stm32f1xx_hal_pwr.c ****       switched off. SRAM and register contents are lost except for registers in the Backup domain 
 293:Drivers/STM32F1xx_HAL_Driver/Src/stm32f1xx_hal_pwr.c ****       and Standby circuitry
 294:Drivers/STM32F1xx_HAL_Driver/Src/stm32f1xx_hal_pwr.c ****       
 295:Drivers/STM32F1xx_HAL_Driver/Src/stm32f1xx_hal_pwr.c ****       (+) Entry:
 296:Drivers/STM32F1xx_HAL_Driver/Src/stm32f1xx_hal_pwr.c ****         (++) The Standby mode is entered using the HAL_PWR_EnterSTANDBYMode() function.
 297:Drivers/STM32F1xx_HAL_Driver/Src/stm32f1xx_hal_pwr.c ****       (+) Exit:
 298:Drivers/STM32F1xx_HAL_Driver/Src/stm32f1xx_hal_pwr.c ****         (++) WKUP pin rising edge, RTC alarm event rising edge, external Reset in 
 299:Drivers/STM32F1xx_HAL_Driver/Src/stm32f1xx_hal_pwr.c ****              NRSTpin, IWDG Reset
 300:Drivers/STM32F1xx_HAL_Driver/Src/stm32f1xx_hal_pwr.c **** 
 301:Drivers/STM32F1xx_HAL_Driver/Src/stm32f1xx_hal_pwr.c ****    *** Auto-wakeup (AWU) from low-power mode ***
 302:Drivers/STM32F1xx_HAL_Driver/Src/stm32f1xx_hal_pwr.c ****        =============================================
 303:Drivers/STM32F1xx_HAL_Driver/Src/stm32f1xx_hal_pwr.c ****        [..]
 304:Drivers/STM32F1xx_HAL_Driver/Src/stm32f1xx_hal_pwr.c ****         
 305:Drivers/STM32F1xx_HAL_Driver/Src/stm32f1xx_hal_pwr.c ****        (+) The MCU can be woken up from low-power mode by an RTC Alarm event, 
 306:Drivers/STM32F1xx_HAL_Driver/Src/stm32f1xx_hal_pwr.c ****            without depending on an external interrupt (Auto-wakeup mode).
 307:Drivers/STM32F1xx_HAL_Driver/Src/stm32f1xx_hal_pwr.c ****    
 308:Drivers/STM32F1xx_HAL_Driver/Src/stm32f1xx_hal_pwr.c ****        (+) RTC auto-wakeup (AWU) from the Stop and Standby modes
 309:Drivers/STM32F1xx_HAL_Driver/Src/stm32f1xx_hal_pwr.c **** 
 310:Drivers/STM32F1xx_HAL_Driver/Src/stm32f1xx_hal_pwr.c ****            (++) To wake up from the Stop mode with an RTC alarm event, it is necessary to 
 311:Drivers/STM32F1xx_HAL_Driver/Src/stm32f1xx_hal_pwr.c ****                 configure the RTC to generate the RTC alarm using the HAL_RTC_SetAlarm_IT() functio
 312:Drivers/STM32F1xx_HAL_Driver/Src/stm32f1xx_hal_pwr.c **** 
 313:Drivers/STM32F1xx_HAL_Driver/Src/stm32f1xx_hal_pwr.c ****    *** PWR Workarounds linked to Silicon Limitation ***
 314:Drivers/STM32F1xx_HAL_Driver/Src/stm32f1xx_hal_pwr.c ****        ====================================================
 315:Drivers/STM32F1xx_HAL_Driver/Src/stm32f1xx_hal_pwr.c ****        [..]
 316:Drivers/STM32F1xx_HAL_Driver/Src/stm32f1xx_hal_pwr.c ****        Below the list of all silicon limitations known on STM32F1xx prouct.
 317:Drivers/STM32F1xx_HAL_Driver/Src/stm32f1xx_hal_pwr.c **** 
 318:Drivers/STM32F1xx_HAL_Driver/Src/stm32f1xx_hal_pwr.c ****        (#)Workarounds Implemented inside PWR HAL Driver
 319:Drivers/STM32F1xx_HAL_Driver/Src/stm32f1xx_hal_pwr.c ****           (##)Debugging Stop mode with WFE entry - overloaded the WFE by an internal function    
 320:Drivers/STM32F1xx_HAL_Driver/Src/stm32f1xx_hal_pwr.c ****         
 321:Drivers/STM32F1xx_HAL_Driver/Src/stm32f1xx_hal_pwr.c **** @endverbatim
 322:Drivers/STM32F1xx_HAL_Driver/Src/stm32f1xx_hal_pwr.c ****   * @{
 323:Drivers/STM32F1xx_HAL_Driver/Src/stm32f1xx_hal_pwr.c ****   */
 324:Drivers/STM32F1xx_HAL_Driver/Src/stm32f1xx_hal_pwr.c **** 
 325:Drivers/STM32F1xx_HAL_Driver/Src/stm32f1xx_hal_pwr.c **** /**
 326:Drivers/STM32F1xx_HAL_Driver/Src/stm32f1xx_hal_pwr.c ****   * @brief  Configures the voltage threshold detected by the Power Voltage Detector(PVD).
 327:Drivers/STM32F1xx_HAL_Driver/Src/stm32f1xx_hal_pwr.c ****   * @param  sConfigPVD: pointer to an PWR_PVDTypeDef structure that contains the configuration
 328:Drivers/STM32F1xx_HAL_Driver/Src/stm32f1xx_hal_pwr.c ****   *         information for the PVD.
 329:Drivers/STM32F1xx_HAL_Driver/Src/stm32f1xx_hal_pwr.c ****   * @note   Refer to the electrical characteristics of your device datasheet for
 330:Drivers/STM32F1xx_HAL_Driver/Src/stm32f1xx_hal_pwr.c ****   *         more details about the voltage threshold corresponding to each
 331:Drivers/STM32F1xx_HAL_Driver/Src/stm32f1xx_hal_pwr.c ****   *         detection level.
ARM GAS  C:\Users\Areg\AppData\Local\Temp\ccbt8Yka.s 			page 9


 332:Drivers/STM32F1xx_HAL_Driver/Src/stm32f1xx_hal_pwr.c ****   * @retval None
 333:Drivers/STM32F1xx_HAL_Driver/Src/stm32f1xx_hal_pwr.c ****   */
 334:Drivers/STM32F1xx_HAL_Driver/Src/stm32f1xx_hal_pwr.c **** void HAL_PWR_ConfigPVD(PWR_PVDTypeDef *sConfigPVD)
 335:Drivers/STM32F1xx_HAL_Driver/Src/stm32f1xx_hal_pwr.c **** {
 135              		.loc 1 335 0
 136              		.cfi_startproc
 137              		@ args = 0, pretend = 0, frame = 0
 138              		@ frame_needed = 0, uses_anonymous_args = 0
 139              		@ link register save eliminated.
 140              	.LVL0:
 336:Drivers/STM32F1xx_HAL_Driver/Src/stm32f1xx_hal_pwr.c ****   /* Check the parameters */
 337:Drivers/STM32F1xx_HAL_Driver/Src/stm32f1xx_hal_pwr.c ****   assert_param(IS_PWR_PVD_LEVEL(sConfigPVD->PVDLevel));
 338:Drivers/STM32F1xx_HAL_Driver/Src/stm32f1xx_hal_pwr.c ****   assert_param(IS_PWR_PVD_MODE(sConfigPVD->Mode));
 339:Drivers/STM32F1xx_HAL_Driver/Src/stm32f1xx_hal_pwr.c **** 
 340:Drivers/STM32F1xx_HAL_Driver/Src/stm32f1xx_hal_pwr.c ****   /* Set PLS[7:5] bits according to PVDLevel value */
 341:Drivers/STM32F1xx_HAL_Driver/Src/stm32f1xx_hal_pwr.c ****   MODIFY_REG(PWR->CR, PWR_CR_PLS, sConfigPVD->PVDLevel);
 141              		.loc 1 341 0
 142 0000 1E49     		ldr	r1, .L16
 143 0002 0B68     		ldr	r3, [r1]
 144 0004 23F0E002 		bic	r2, r3, #224
 145 0008 0368     		ldr	r3, [r0]
 146 000a 1343     		orrs	r3, r3, r2
 147 000c 0B60     		str	r3, [r1]
 342:Drivers/STM32F1xx_HAL_Driver/Src/stm32f1xx_hal_pwr.c ****   
 343:Drivers/STM32F1xx_HAL_Driver/Src/stm32f1xx_hal_pwr.c ****   /* Clear any previous config. Keep it clear if no event or IT mode is selected */
 344:Drivers/STM32F1xx_HAL_Driver/Src/stm32f1xx_hal_pwr.c ****   __HAL_PWR_PVD_EXTI_DISABLE_EVENT();
 148              		.loc 1 344 0
 149 000e 1C4B     		ldr	r3, .L16+4
 150 0010 5A68     		ldr	r2, [r3, #4]
 151 0012 22F48032 		bic	r2, r2, #65536
 152 0016 5A60     		str	r2, [r3, #4]
 345:Drivers/STM32F1xx_HAL_Driver/Src/stm32f1xx_hal_pwr.c ****   __HAL_PWR_PVD_EXTI_DISABLE_IT();
 153              		.loc 1 345 0
 154 0018 1A68     		ldr	r2, [r3]
 155 001a 22F48032 		bic	r2, r2, #65536
 156 001e 1A60     		str	r2, [r3]
 346:Drivers/STM32F1xx_HAL_Driver/Src/stm32f1xx_hal_pwr.c ****   __HAL_PWR_PVD_EXTI_DISABLE_FALLING_EDGE(); 
 157              		.loc 1 346 0
 158 0020 DA68     		ldr	r2, [r3, #12]
 159 0022 22F48032 		bic	r2, r2, #65536
 160 0026 DA60     		str	r2, [r3, #12]
 347:Drivers/STM32F1xx_HAL_Driver/Src/stm32f1xx_hal_pwr.c ****   __HAL_PWR_PVD_EXTI_DISABLE_RISING_EDGE();
 161              		.loc 1 347 0
 162 0028 9A68     		ldr	r2, [r3, #8]
 163 002a 22F48032 		bic	r2, r2, #65536
 164 002e 9A60     		str	r2, [r3, #8]
 348:Drivers/STM32F1xx_HAL_Driver/Src/stm32f1xx_hal_pwr.c **** 
 349:Drivers/STM32F1xx_HAL_Driver/Src/stm32f1xx_hal_pwr.c ****   /* Configure interrupt mode */
 350:Drivers/STM32F1xx_HAL_Driver/Src/stm32f1xx_hal_pwr.c ****   if((sConfigPVD->Mode & PVD_MODE_IT) == PVD_MODE_IT)
 165              		.loc 1 350 0
 166 0030 4368     		ldr	r3, [r0, #4]
 167 0032 13F4803F 		tst	r3, #65536
 168 0036 04D0     		beq	.L12
 351:Drivers/STM32F1xx_HAL_Driver/Src/stm32f1xx_hal_pwr.c ****   {
 352:Drivers/STM32F1xx_HAL_Driver/Src/stm32f1xx_hal_pwr.c ****     __HAL_PWR_PVD_EXTI_ENABLE_IT();
 169              		.loc 1 352 0
 170 0038 114A     		ldr	r2, .L16+4
ARM GAS  C:\Users\Areg\AppData\Local\Temp\ccbt8Yka.s 			page 10


 171 003a 1368     		ldr	r3, [r2]
 172 003c 43F48033 		orr	r3, r3, #65536
 173 0040 1360     		str	r3, [r2]
 174              	.L12:
 353:Drivers/STM32F1xx_HAL_Driver/Src/stm32f1xx_hal_pwr.c ****   }
 354:Drivers/STM32F1xx_HAL_Driver/Src/stm32f1xx_hal_pwr.c ****   
 355:Drivers/STM32F1xx_HAL_Driver/Src/stm32f1xx_hal_pwr.c ****   /* Configure event mode */
 356:Drivers/STM32F1xx_HAL_Driver/Src/stm32f1xx_hal_pwr.c ****   if((sConfigPVD->Mode & PVD_MODE_EVT) == PVD_MODE_EVT)
 175              		.loc 1 356 0
 176 0042 4368     		ldr	r3, [r0, #4]
 177 0044 13F4003F 		tst	r3, #131072
 178 0048 04D0     		beq	.L13
 357:Drivers/STM32F1xx_HAL_Driver/Src/stm32f1xx_hal_pwr.c ****   {
 358:Drivers/STM32F1xx_HAL_Driver/Src/stm32f1xx_hal_pwr.c ****     __HAL_PWR_PVD_EXTI_ENABLE_EVENT();
 179              		.loc 1 358 0
 180 004a 0D4A     		ldr	r2, .L16+4
 181 004c 5368     		ldr	r3, [r2, #4]
 182 004e 43F48033 		orr	r3, r3, #65536
 183 0052 5360     		str	r3, [r2, #4]
 184              	.L13:
 359:Drivers/STM32F1xx_HAL_Driver/Src/stm32f1xx_hal_pwr.c ****   }
 360:Drivers/STM32F1xx_HAL_Driver/Src/stm32f1xx_hal_pwr.c ****   
 361:Drivers/STM32F1xx_HAL_Driver/Src/stm32f1xx_hal_pwr.c ****   /* Configure the edge */
 362:Drivers/STM32F1xx_HAL_Driver/Src/stm32f1xx_hal_pwr.c ****   if((sConfigPVD->Mode & PVD_RISING_EDGE) == PVD_RISING_EDGE)
 185              		.loc 1 362 0
 186 0054 4368     		ldr	r3, [r0, #4]
 187 0056 13F0010F 		tst	r3, #1
 188 005a 04D0     		beq	.L14
 363:Drivers/STM32F1xx_HAL_Driver/Src/stm32f1xx_hal_pwr.c ****   {
 364:Drivers/STM32F1xx_HAL_Driver/Src/stm32f1xx_hal_pwr.c ****     __HAL_PWR_PVD_EXTI_ENABLE_RISING_EDGE();
 189              		.loc 1 364 0
 190 005c 084A     		ldr	r2, .L16+4
 191 005e 9368     		ldr	r3, [r2, #8]
 192 0060 43F48033 		orr	r3, r3, #65536
 193 0064 9360     		str	r3, [r2, #8]
 194              	.L14:
 365:Drivers/STM32F1xx_HAL_Driver/Src/stm32f1xx_hal_pwr.c ****   }
 366:Drivers/STM32F1xx_HAL_Driver/Src/stm32f1xx_hal_pwr.c ****   
 367:Drivers/STM32F1xx_HAL_Driver/Src/stm32f1xx_hal_pwr.c ****   if((sConfigPVD->Mode & PVD_FALLING_EDGE) == PVD_FALLING_EDGE)
 195              		.loc 1 367 0
 196 0066 4368     		ldr	r3, [r0, #4]
 197 0068 13F0020F 		tst	r3, #2
 198 006c 04D0     		beq	.L11
 368:Drivers/STM32F1xx_HAL_Driver/Src/stm32f1xx_hal_pwr.c ****   {
 369:Drivers/STM32F1xx_HAL_Driver/Src/stm32f1xx_hal_pwr.c ****     __HAL_PWR_PVD_EXTI_ENABLE_FALLING_EDGE();
 199              		.loc 1 369 0
 200 006e 044A     		ldr	r2, .L16+4
 201 0070 D368     		ldr	r3, [r2, #12]
 202 0072 43F48033 		orr	r3, r3, #65536
 203 0076 D360     		str	r3, [r2, #12]
 204              	.L11:
 205 0078 7047     		bx	lr
 206              	.L17:
 207 007a 00BF     		.align	2
 208              	.L16:
 209 007c 00700040 		.word	1073770496
 210 0080 00040140 		.word	1073808384
ARM GAS  C:\Users\Areg\AppData\Local\Temp\ccbt8Yka.s 			page 11


 211              		.cfi_endproc
 212              	.LFE68:
 214              		.section	.text.HAL_PWR_EnablePVD,"ax",%progbits
 215              		.align	2
 216              		.global	HAL_PWR_EnablePVD
 217              		.thumb
 218              		.thumb_func
 220              	HAL_PWR_EnablePVD:
 221              	.LFB69:
 370:Drivers/STM32F1xx_HAL_Driver/Src/stm32f1xx_hal_pwr.c ****   }
 371:Drivers/STM32F1xx_HAL_Driver/Src/stm32f1xx_hal_pwr.c **** }
 372:Drivers/STM32F1xx_HAL_Driver/Src/stm32f1xx_hal_pwr.c **** 
 373:Drivers/STM32F1xx_HAL_Driver/Src/stm32f1xx_hal_pwr.c **** /**
 374:Drivers/STM32F1xx_HAL_Driver/Src/stm32f1xx_hal_pwr.c ****   * @brief  Enables the Power Voltage Detector(PVD).
 375:Drivers/STM32F1xx_HAL_Driver/Src/stm32f1xx_hal_pwr.c ****   * @retval None
 376:Drivers/STM32F1xx_HAL_Driver/Src/stm32f1xx_hal_pwr.c ****   */
 377:Drivers/STM32F1xx_HAL_Driver/Src/stm32f1xx_hal_pwr.c **** void HAL_PWR_EnablePVD(void)
 378:Drivers/STM32F1xx_HAL_Driver/Src/stm32f1xx_hal_pwr.c **** {
 222              		.loc 1 378 0
 223              		.cfi_startproc
 224              		@ args = 0, pretend = 0, frame = 0
 225              		@ frame_needed = 0, uses_anonymous_args = 0
 226              		@ link register save eliminated.
 379:Drivers/STM32F1xx_HAL_Driver/Src/stm32f1xx_hal_pwr.c ****   /* Enable the power voltage detector */
 380:Drivers/STM32F1xx_HAL_Driver/Src/stm32f1xx_hal_pwr.c ****   *(__IO uint32_t *) CR_PVDE_BB = (uint32_t)ENABLE;
 227              		.loc 1 380 0
 228 0000 0122     		movs	r2, #1
 229 0002 014B     		ldr	r3, .L19
 230 0004 1A60     		str	r2, [r3]
 231 0006 7047     		bx	lr
 232              	.L20:
 233              		.align	2
 234              	.L19:
 235 0008 10000E42 		.word	1108213776
 236              		.cfi_endproc
 237              	.LFE69:
 239              		.section	.text.HAL_PWR_DisablePVD,"ax",%progbits
 240              		.align	2
 241              		.global	HAL_PWR_DisablePVD
 242              		.thumb
 243              		.thumb_func
 245              	HAL_PWR_DisablePVD:
 246              	.LFB70:
 381:Drivers/STM32F1xx_HAL_Driver/Src/stm32f1xx_hal_pwr.c **** }
 382:Drivers/STM32F1xx_HAL_Driver/Src/stm32f1xx_hal_pwr.c **** 
 383:Drivers/STM32F1xx_HAL_Driver/Src/stm32f1xx_hal_pwr.c **** /**
 384:Drivers/STM32F1xx_HAL_Driver/Src/stm32f1xx_hal_pwr.c ****   * @brief  Disables the Power Voltage Detector(PVD).
 385:Drivers/STM32F1xx_HAL_Driver/Src/stm32f1xx_hal_pwr.c ****   * @retval None
 386:Drivers/STM32F1xx_HAL_Driver/Src/stm32f1xx_hal_pwr.c ****   */
 387:Drivers/STM32F1xx_HAL_Driver/Src/stm32f1xx_hal_pwr.c **** void HAL_PWR_DisablePVD(void)
 388:Drivers/STM32F1xx_HAL_Driver/Src/stm32f1xx_hal_pwr.c **** {
 247              		.loc 1 388 0
 248              		.cfi_startproc
 249              		@ args = 0, pretend = 0, frame = 0
 250              		@ frame_needed = 0, uses_anonymous_args = 0
 251              		@ link register save eliminated.
 389:Drivers/STM32F1xx_HAL_Driver/Src/stm32f1xx_hal_pwr.c ****   /* Disable the power voltage detector */
ARM GAS  C:\Users\Areg\AppData\Local\Temp\ccbt8Yka.s 			page 12


 390:Drivers/STM32F1xx_HAL_Driver/Src/stm32f1xx_hal_pwr.c ****   *(__IO uint32_t *) CR_PVDE_BB = (uint32_t)DISABLE;
 252              		.loc 1 390 0
 253 0000 0022     		movs	r2, #0
 254 0002 014B     		ldr	r3, .L22
 255 0004 1A60     		str	r2, [r3]
 256 0006 7047     		bx	lr
 257              	.L23:
 258              		.align	2
 259              	.L22:
 260 0008 10000E42 		.word	1108213776
 261              		.cfi_endproc
 262              	.LFE70:
 264              		.section	.text.HAL_PWR_EnableWakeUpPin,"ax",%progbits
 265              		.align	2
 266              		.global	HAL_PWR_EnableWakeUpPin
 267              		.thumb
 268              		.thumb_func
 270              	HAL_PWR_EnableWakeUpPin:
 271              	.LFB71:
 391:Drivers/STM32F1xx_HAL_Driver/Src/stm32f1xx_hal_pwr.c **** }
 392:Drivers/STM32F1xx_HAL_Driver/Src/stm32f1xx_hal_pwr.c **** 
 393:Drivers/STM32F1xx_HAL_Driver/Src/stm32f1xx_hal_pwr.c **** /**
 394:Drivers/STM32F1xx_HAL_Driver/Src/stm32f1xx_hal_pwr.c ****   * @brief Enables the WakeUp PINx functionality.
 395:Drivers/STM32F1xx_HAL_Driver/Src/stm32f1xx_hal_pwr.c ****   * @param WakeUpPinx: Specifies the Power Wake-Up pin to enable.
 396:Drivers/STM32F1xx_HAL_Driver/Src/stm32f1xx_hal_pwr.c ****   *        This parameter can be one of the following values:
 397:Drivers/STM32F1xx_HAL_Driver/Src/stm32f1xx_hal_pwr.c ****   *           @arg PWR_WAKEUP_PIN1
 398:Drivers/STM32F1xx_HAL_Driver/Src/stm32f1xx_hal_pwr.c ****   * @retval None
 399:Drivers/STM32F1xx_HAL_Driver/Src/stm32f1xx_hal_pwr.c ****   */
 400:Drivers/STM32F1xx_HAL_Driver/Src/stm32f1xx_hal_pwr.c **** void HAL_PWR_EnableWakeUpPin(uint32_t WakeUpPinx)
 401:Drivers/STM32F1xx_HAL_Driver/Src/stm32f1xx_hal_pwr.c **** {
 272              		.loc 1 401 0
 273              		.cfi_startproc
 274              		@ args = 0, pretend = 0, frame = 0
 275              		@ frame_needed = 0, uses_anonymous_args = 0
 276              		@ link register save eliminated.
 277              	.LVL1:
 278              	.LBB20:
 279              	.LBB21:
 280              		.file 2 "Drivers/CMSIS/Include/cmsis_gcc.h"
   1:Drivers/CMSIS/Include/cmsis_gcc.h **** /**************************************************************************//**
   2:Drivers/CMSIS/Include/cmsis_gcc.h ****  * @file     cmsis_gcc.h
   3:Drivers/CMSIS/Include/cmsis_gcc.h ****  * @brief    CMSIS Cortex-M Core Function/Instruction Header File
   4:Drivers/CMSIS/Include/cmsis_gcc.h ****  * @version  V4.30
   5:Drivers/CMSIS/Include/cmsis_gcc.h ****  * @date     20. October 2015
   6:Drivers/CMSIS/Include/cmsis_gcc.h ****  ******************************************************************************/
   7:Drivers/CMSIS/Include/cmsis_gcc.h **** /* Copyright (c) 2009 - 2015 ARM LIMITED
   8:Drivers/CMSIS/Include/cmsis_gcc.h **** 
   9:Drivers/CMSIS/Include/cmsis_gcc.h ****    All rights reserved.
  10:Drivers/CMSIS/Include/cmsis_gcc.h ****    Redistribution and use in source and binary forms, with or without
  11:Drivers/CMSIS/Include/cmsis_gcc.h ****    modification, are permitted provided that the following conditions are met:
  12:Drivers/CMSIS/Include/cmsis_gcc.h ****    - Redistributions of source code must retain the above copyright
  13:Drivers/CMSIS/Include/cmsis_gcc.h ****      notice, this list of conditions and the following disclaimer.
  14:Drivers/CMSIS/Include/cmsis_gcc.h ****    - Redistributions in binary form must reproduce the above copyright
  15:Drivers/CMSIS/Include/cmsis_gcc.h ****      notice, this list of conditions and the following disclaimer in the
  16:Drivers/CMSIS/Include/cmsis_gcc.h ****      documentation and/or other materials provided with the distribution.
  17:Drivers/CMSIS/Include/cmsis_gcc.h ****    - Neither the name of ARM nor the names of its contributors may be used
  18:Drivers/CMSIS/Include/cmsis_gcc.h ****      to endorse or promote products derived from this software without
ARM GAS  C:\Users\Areg\AppData\Local\Temp\ccbt8Yka.s 			page 13


  19:Drivers/CMSIS/Include/cmsis_gcc.h ****      specific prior written permission.
  20:Drivers/CMSIS/Include/cmsis_gcc.h ****    *
  21:Drivers/CMSIS/Include/cmsis_gcc.h ****    THIS SOFTWARE IS PROVIDED BY THE COPYRIGHT HOLDERS AND CONTRIBUTORS "AS IS"
  22:Drivers/CMSIS/Include/cmsis_gcc.h ****    AND ANY EXPRESS OR IMPLIED WARRANTIES, INCLUDING, BUT NOT LIMITED TO, THE
  23:Drivers/CMSIS/Include/cmsis_gcc.h ****    IMPLIED WARRANTIES OF MERCHANTABILITY AND FITNESS FOR A PARTICULAR PURPOSE
  24:Drivers/CMSIS/Include/cmsis_gcc.h ****    ARE DISCLAIMED. IN NO EVENT SHALL COPYRIGHT HOLDERS AND CONTRIBUTORS BE
  25:Drivers/CMSIS/Include/cmsis_gcc.h ****    LIABLE FOR ANY DIRECT, INDIRECT, INCIDENTAL, SPECIAL, EXEMPLARY, OR
  26:Drivers/CMSIS/Include/cmsis_gcc.h ****    CONSEQUENTIAL DAMAGES (INCLUDING, BUT NOT LIMITED TO, PROCUREMENT OF
  27:Drivers/CMSIS/Include/cmsis_gcc.h ****    SUBSTITUTE GOODS OR SERVICES; LOSS OF USE, DATA, OR PROFITS; OR BUSINESS
  28:Drivers/CMSIS/Include/cmsis_gcc.h ****    INTERRUPTION) HOWEVER CAUSED AND ON ANY THEORY OF LIABILITY, WHETHER IN
  29:Drivers/CMSIS/Include/cmsis_gcc.h ****    CONTRACT, STRICT LIABILITY, OR TORT (INCLUDING NEGLIGENCE OR OTHERWISE)
  30:Drivers/CMSIS/Include/cmsis_gcc.h ****    ARISING IN ANY WAY OUT OF THE USE OF THIS SOFTWARE, EVEN IF ADVISED OF THE
  31:Drivers/CMSIS/Include/cmsis_gcc.h ****    POSSIBILITY OF SUCH DAMAGE.
  32:Drivers/CMSIS/Include/cmsis_gcc.h ****    ---------------------------------------------------------------------------*/
  33:Drivers/CMSIS/Include/cmsis_gcc.h **** 
  34:Drivers/CMSIS/Include/cmsis_gcc.h **** 
  35:Drivers/CMSIS/Include/cmsis_gcc.h **** #ifndef __CMSIS_GCC_H
  36:Drivers/CMSIS/Include/cmsis_gcc.h **** #define __CMSIS_GCC_H
  37:Drivers/CMSIS/Include/cmsis_gcc.h **** 
  38:Drivers/CMSIS/Include/cmsis_gcc.h **** /* ignore some GCC warnings */
  39:Drivers/CMSIS/Include/cmsis_gcc.h **** #if defined ( __GNUC__ )
  40:Drivers/CMSIS/Include/cmsis_gcc.h **** #pragma GCC diagnostic push
  41:Drivers/CMSIS/Include/cmsis_gcc.h **** #pragma GCC diagnostic ignored "-Wsign-conversion"
  42:Drivers/CMSIS/Include/cmsis_gcc.h **** #pragma GCC diagnostic ignored "-Wconversion"
  43:Drivers/CMSIS/Include/cmsis_gcc.h **** #pragma GCC diagnostic ignored "-Wunused-parameter"
  44:Drivers/CMSIS/Include/cmsis_gcc.h **** #endif
  45:Drivers/CMSIS/Include/cmsis_gcc.h **** 
  46:Drivers/CMSIS/Include/cmsis_gcc.h **** 
  47:Drivers/CMSIS/Include/cmsis_gcc.h **** /* ###########################  Core Function Access  ########################### */
  48:Drivers/CMSIS/Include/cmsis_gcc.h **** /** \ingroup  CMSIS_Core_FunctionInterface
  49:Drivers/CMSIS/Include/cmsis_gcc.h ****     \defgroup CMSIS_Core_RegAccFunctions CMSIS Core Register Access Functions
  50:Drivers/CMSIS/Include/cmsis_gcc.h ****   @{
  51:Drivers/CMSIS/Include/cmsis_gcc.h ****  */
  52:Drivers/CMSIS/Include/cmsis_gcc.h **** 
  53:Drivers/CMSIS/Include/cmsis_gcc.h **** /**
  54:Drivers/CMSIS/Include/cmsis_gcc.h ****   \brief   Enable IRQ Interrupts
  55:Drivers/CMSIS/Include/cmsis_gcc.h ****   \details Enables IRQ interrupts by clearing the I-bit in the CPSR.
  56:Drivers/CMSIS/Include/cmsis_gcc.h ****            Can only be executed in Privileged modes.
  57:Drivers/CMSIS/Include/cmsis_gcc.h ****  */
  58:Drivers/CMSIS/Include/cmsis_gcc.h **** __attribute__( ( always_inline ) ) __STATIC_INLINE void __enable_irq(void)
  59:Drivers/CMSIS/Include/cmsis_gcc.h **** {
  60:Drivers/CMSIS/Include/cmsis_gcc.h ****   __ASM volatile ("cpsie i" : : : "memory");
  61:Drivers/CMSIS/Include/cmsis_gcc.h **** }
  62:Drivers/CMSIS/Include/cmsis_gcc.h **** 
  63:Drivers/CMSIS/Include/cmsis_gcc.h **** 
  64:Drivers/CMSIS/Include/cmsis_gcc.h **** /**
  65:Drivers/CMSIS/Include/cmsis_gcc.h ****   \brief   Disable IRQ Interrupts
  66:Drivers/CMSIS/Include/cmsis_gcc.h ****   \details Disables IRQ interrupts by setting the I-bit in the CPSR.
  67:Drivers/CMSIS/Include/cmsis_gcc.h ****   Can only be executed in Privileged modes.
  68:Drivers/CMSIS/Include/cmsis_gcc.h ****  */
  69:Drivers/CMSIS/Include/cmsis_gcc.h **** __attribute__( ( always_inline ) ) __STATIC_INLINE void __disable_irq(void)
  70:Drivers/CMSIS/Include/cmsis_gcc.h **** {
  71:Drivers/CMSIS/Include/cmsis_gcc.h ****   __ASM volatile ("cpsid i" : : : "memory");
  72:Drivers/CMSIS/Include/cmsis_gcc.h **** }
  73:Drivers/CMSIS/Include/cmsis_gcc.h **** 
  74:Drivers/CMSIS/Include/cmsis_gcc.h **** 
  75:Drivers/CMSIS/Include/cmsis_gcc.h **** /**
ARM GAS  C:\Users\Areg\AppData\Local\Temp\ccbt8Yka.s 			page 14


  76:Drivers/CMSIS/Include/cmsis_gcc.h ****   \brief   Get Control Register
  77:Drivers/CMSIS/Include/cmsis_gcc.h ****   \details Returns the content of the Control Register.
  78:Drivers/CMSIS/Include/cmsis_gcc.h ****   \return               Control Register value
  79:Drivers/CMSIS/Include/cmsis_gcc.h ****  */
  80:Drivers/CMSIS/Include/cmsis_gcc.h **** __attribute__( ( always_inline ) ) __STATIC_INLINE uint32_t __get_CONTROL(void)
  81:Drivers/CMSIS/Include/cmsis_gcc.h **** {
  82:Drivers/CMSIS/Include/cmsis_gcc.h ****   uint32_t result;
  83:Drivers/CMSIS/Include/cmsis_gcc.h **** 
  84:Drivers/CMSIS/Include/cmsis_gcc.h ****   __ASM volatile ("MRS %0, control" : "=r" (result) );
  85:Drivers/CMSIS/Include/cmsis_gcc.h ****   return(result);
  86:Drivers/CMSIS/Include/cmsis_gcc.h **** }
  87:Drivers/CMSIS/Include/cmsis_gcc.h **** 
  88:Drivers/CMSIS/Include/cmsis_gcc.h **** 
  89:Drivers/CMSIS/Include/cmsis_gcc.h **** /**
  90:Drivers/CMSIS/Include/cmsis_gcc.h ****   \brief   Set Control Register
  91:Drivers/CMSIS/Include/cmsis_gcc.h ****   \details Writes the given value to the Control Register.
  92:Drivers/CMSIS/Include/cmsis_gcc.h ****   \param [in]    control  Control Register value to set
  93:Drivers/CMSIS/Include/cmsis_gcc.h ****  */
  94:Drivers/CMSIS/Include/cmsis_gcc.h **** __attribute__( ( always_inline ) ) __STATIC_INLINE void __set_CONTROL(uint32_t control)
  95:Drivers/CMSIS/Include/cmsis_gcc.h **** {
  96:Drivers/CMSIS/Include/cmsis_gcc.h ****   __ASM volatile ("MSR control, %0" : : "r" (control) : "memory");
  97:Drivers/CMSIS/Include/cmsis_gcc.h **** }
  98:Drivers/CMSIS/Include/cmsis_gcc.h **** 
  99:Drivers/CMSIS/Include/cmsis_gcc.h **** 
 100:Drivers/CMSIS/Include/cmsis_gcc.h **** /**
 101:Drivers/CMSIS/Include/cmsis_gcc.h ****   \brief   Get IPSR Register
 102:Drivers/CMSIS/Include/cmsis_gcc.h ****   \details Returns the content of the IPSR Register.
 103:Drivers/CMSIS/Include/cmsis_gcc.h ****   \return               IPSR Register value
 104:Drivers/CMSIS/Include/cmsis_gcc.h ****  */
 105:Drivers/CMSIS/Include/cmsis_gcc.h **** __attribute__( ( always_inline ) ) __STATIC_INLINE uint32_t __get_IPSR(void)
 106:Drivers/CMSIS/Include/cmsis_gcc.h **** {
 107:Drivers/CMSIS/Include/cmsis_gcc.h ****   uint32_t result;
 108:Drivers/CMSIS/Include/cmsis_gcc.h **** 
 109:Drivers/CMSIS/Include/cmsis_gcc.h ****   __ASM volatile ("MRS %0, ipsr" : "=r" (result) );
 110:Drivers/CMSIS/Include/cmsis_gcc.h ****   return(result);
 111:Drivers/CMSIS/Include/cmsis_gcc.h **** }
 112:Drivers/CMSIS/Include/cmsis_gcc.h **** 
 113:Drivers/CMSIS/Include/cmsis_gcc.h **** 
 114:Drivers/CMSIS/Include/cmsis_gcc.h **** /**
 115:Drivers/CMSIS/Include/cmsis_gcc.h ****   \brief   Get APSR Register
 116:Drivers/CMSIS/Include/cmsis_gcc.h ****   \details Returns the content of the APSR Register.
 117:Drivers/CMSIS/Include/cmsis_gcc.h ****   \return               APSR Register value
 118:Drivers/CMSIS/Include/cmsis_gcc.h ****  */
 119:Drivers/CMSIS/Include/cmsis_gcc.h **** __attribute__( ( always_inline ) ) __STATIC_INLINE uint32_t __get_APSR(void)
 120:Drivers/CMSIS/Include/cmsis_gcc.h **** {
 121:Drivers/CMSIS/Include/cmsis_gcc.h ****   uint32_t result;
 122:Drivers/CMSIS/Include/cmsis_gcc.h **** 
 123:Drivers/CMSIS/Include/cmsis_gcc.h ****   __ASM volatile ("MRS %0, apsr" : "=r" (result) );
 124:Drivers/CMSIS/Include/cmsis_gcc.h ****   return(result);
 125:Drivers/CMSIS/Include/cmsis_gcc.h **** }
 126:Drivers/CMSIS/Include/cmsis_gcc.h **** 
 127:Drivers/CMSIS/Include/cmsis_gcc.h **** 
 128:Drivers/CMSIS/Include/cmsis_gcc.h **** /**
 129:Drivers/CMSIS/Include/cmsis_gcc.h ****   \brief   Get xPSR Register
 130:Drivers/CMSIS/Include/cmsis_gcc.h ****   \details Returns the content of the xPSR Register.
 131:Drivers/CMSIS/Include/cmsis_gcc.h **** 
 132:Drivers/CMSIS/Include/cmsis_gcc.h ****     \return               xPSR Register value
ARM GAS  C:\Users\Areg\AppData\Local\Temp\ccbt8Yka.s 			page 15


 133:Drivers/CMSIS/Include/cmsis_gcc.h ****  */
 134:Drivers/CMSIS/Include/cmsis_gcc.h **** __attribute__( ( always_inline ) ) __STATIC_INLINE uint32_t __get_xPSR(void)
 135:Drivers/CMSIS/Include/cmsis_gcc.h **** {
 136:Drivers/CMSIS/Include/cmsis_gcc.h ****   uint32_t result;
 137:Drivers/CMSIS/Include/cmsis_gcc.h **** 
 138:Drivers/CMSIS/Include/cmsis_gcc.h ****   __ASM volatile ("MRS %0, xpsr" : "=r" (result) );
 139:Drivers/CMSIS/Include/cmsis_gcc.h ****   return(result);
 140:Drivers/CMSIS/Include/cmsis_gcc.h **** }
 141:Drivers/CMSIS/Include/cmsis_gcc.h **** 
 142:Drivers/CMSIS/Include/cmsis_gcc.h **** 
 143:Drivers/CMSIS/Include/cmsis_gcc.h **** /**
 144:Drivers/CMSIS/Include/cmsis_gcc.h ****   \brief   Get Process Stack Pointer
 145:Drivers/CMSIS/Include/cmsis_gcc.h ****   \details Returns the current value of the Process Stack Pointer (PSP).
 146:Drivers/CMSIS/Include/cmsis_gcc.h ****   \return               PSP Register value
 147:Drivers/CMSIS/Include/cmsis_gcc.h ****  */
 148:Drivers/CMSIS/Include/cmsis_gcc.h **** __attribute__( ( always_inline ) ) __STATIC_INLINE uint32_t __get_PSP(void)
 149:Drivers/CMSIS/Include/cmsis_gcc.h **** {
 150:Drivers/CMSIS/Include/cmsis_gcc.h ****   register uint32_t result;
 151:Drivers/CMSIS/Include/cmsis_gcc.h **** 
 152:Drivers/CMSIS/Include/cmsis_gcc.h ****   __ASM volatile ("MRS %0, psp\n"  : "=r" (result) );
 153:Drivers/CMSIS/Include/cmsis_gcc.h ****   return(result);
 154:Drivers/CMSIS/Include/cmsis_gcc.h **** }
 155:Drivers/CMSIS/Include/cmsis_gcc.h **** 
 156:Drivers/CMSIS/Include/cmsis_gcc.h **** 
 157:Drivers/CMSIS/Include/cmsis_gcc.h **** /**
 158:Drivers/CMSIS/Include/cmsis_gcc.h ****   \brief   Set Process Stack Pointer
 159:Drivers/CMSIS/Include/cmsis_gcc.h ****   \details Assigns the given value to the Process Stack Pointer (PSP).
 160:Drivers/CMSIS/Include/cmsis_gcc.h ****   \param [in]    topOfProcStack  Process Stack Pointer value to set
 161:Drivers/CMSIS/Include/cmsis_gcc.h ****  */
 162:Drivers/CMSIS/Include/cmsis_gcc.h **** __attribute__( ( always_inline ) ) __STATIC_INLINE void __set_PSP(uint32_t topOfProcStack)
 163:Drivers/CMSIS/Include/cmsis_gcc.h **** {
 164:Drivers/CMSIS/Include/cmsis_gcc.h ****   __ASM volatile ("MSR psp, %0\n" : : "r" (topOfProcStack) : "sp");
 165:Drivers/CMSIS/Include/cmsis_gcc.h **** }
 166:Drivers/CMSIS/Include/cmsis_gcc.h **** 
 167:Drivers/CMSIS/Include/cmsis_gcc.h **** 
 168:Drivers/CMSIS/Include/cmsis_gcc.h **** /**
 169:Drivers/CMSIS/Include/cmsis_gcc.h ****   \brief   Get Main Stack Pointer
 170:Drivers/CMSIS/Include/cmsis_gcc.h ****   \details Returns the current value of the Main Stack Pointer (MSP).
 171:Drivers/CMSIS/Include/cmsis_gcc.h ****   \return               MSP Register value
 172:Drivers/CMSIS/Include/cmsis_gcc.h ****  */
 173:Drivers/CMSIS/Include/cmsis_gcc.h **** __attribute__( ( always_inline ) ) __STATIC_INLINE uint32_t __get_MSP(void)
 174:Drivers/CMSIS/Include/cmsis_gcc.h **** {
 175:Drivers/CMSIS/Include/cmsis_gcc.h ****   register uint32_t result;
 176:Drivers/CMSIS/Include/cmsis_gcc.h **** 
 177:Drivers/CMSIS/Include/cmsis_gcc.h ****   __ASM volatile ("MRS %0, msp\n" : "=r" (result) );
 178:Drivers/CMSIS/Include/cmsis_gcc.h ****   return(result);
 179:Drivers/CMSIS/Include/cmsis_gcc.h **** }
 180:Drivers/CMSIS/Include/cmsis_gcc.h **** 
 181:Drivers/CMSIS/Include/cmsis_gcc.h **** 
 182:Drivers/CMSIS/Include/cmsis_gcc.h **** /**
 183:Drivers/CMSIS/Include/cmsis_gcc.h ****   \brief   Set Main Stack Pointer
 184:Drivers/CMSIS/Include/cmsis_gcc.h ****   \details Assigns the given value to the Main Stack Pointer (MSP).
 185:Drivers/CMSIS/Include/cmsis_gcc.h **** 
 186:Drivers/CMSIS/Include/cmsis_gcc.h ****     \param [in]    topOfMainStack  Main Stack Pointer value to set
 187:Drivers/CMSIS/Include/cmsis_gcc.h ****  */
 188:Drivers/CMSIS/Include/cmsis_gcc.h **** __attribute__( ( always_inline ) ) __STATIC_INLINE void __set_MSP(uint32_t topOfMainStack)
 189:Drivers/CMSIS/Include/cmsis_gcc.h **** {
ARM GAS  C:\Users\Areg\AppData\Local\Temp\ccbt8Yka.s 			page 16


 190:Drivers/CMSIS/Include/cmsis_gcc.h ****   __ASM volatile ("MSR msp, %0\n" : : "r" (topOfMainStack) : "sp");
 191:Drivers/CMSIS/Include/cmsis_gcc.h **** }
 192:Drivers/CMSIS/Include/cmsis_gcc.h **** 
 193:Drivers/CMSIS/Include/cmsis_gcc.h **** 
 194:Drivers/CMSIS/Include/cmsis_gcc.h **** /**
 195:Drivers/CMSIS/Include/cmsis_gcc.h ****   \brief   Get Priority Mask
 196:Drivers/CMSIS/Include/cmsis_gcc.h ****   \details Returns the current state of the priority mask bit from the Priority Mask Register.
 197:Drivers/CMSIS/Include/cmsis_gcc.h ****   \return               Priority Mask value
 198:Drivers/CMSIS/Include/cmsis_gcc.h ****  */
 199:Drivers/CMSIS/Include/cmsis_gcc.h **** __attribute__( ( always_inline ) ) __STATIC_INLINE uint32_t __get_PRIMASK(void)
 200:Drivers/CMSIS/Include/cmsis_gcc.h **** {
 201:Drivers/CMSIS/Include/cmsis_gcc.h ****   uint32_t result;
 202:Drivers/CMSIS/Include/cmsis_gcc.h **** 
 203:Drivers/CMSIS/Include/cmsis_gcc.h ****   __ASM volatile ("MRS %0, primask" : "=r" (result) );
 204:Drivers/CMSIS/Include/cmsis_gcc.h ****   return(result);
 205:Drivers/CMSIS/Include/cmsis_gcc.h **** }
 206:Drivers/CMSIS/Include/cmsis_gcc.h **** 
 207:Drivers/CMSIS/Include/cmsis_gcc.h **** 
 208:Drivers/CMSIS/Include/cmsis_gcc.h **** /**
 209:Drivers/CMSIS/Include/cmsis_gcc.h ****   \brief   Set Priority Mask
 210:Drivers/CMSIS/Include/cmsis_gcc.h ****   \details Assigns the given value to the Priority Mask Register.
 211:Drivers/CMSIS/Include/cmsis_gcc.h ****   \param [in]    priMask  Priority Mask
 212:Drivers/CMSIS/Include/cmsis_gcc.h ****  */
 213:Drivers/CMSIS/Include/cmsis_gcc.h **** __attribute__( ( always_inline ) ) __STATIC_INLINE void __set_PRIMASK(uint32_t priMask)
 214:Drivers/CMSIS/Include/cmsis_gcc.h **** {
 215:Drivers/CMSIS/Include/cmsis_gcc.h ****   __ASM volatile ("MSR primask, %0" : : "r" (priMask) : "memory");
 216:Drivers/CMSIS/Include/cmsis_gcc.h **** }
 217:Drivers/CMSIS/Include/cmsis_gcc.h **** 
 218:Drivers/CMSIS/Include/cmsis_gcc.h **** 
 219:Drivers/CMSIS/Include/cmsis_gcc.h **** #if       (__CORTEX_M >= 0x03U)
 220:Drivers/CMSIS/Include/cmsis_gcc.h **** 
 221:Drivers/CMSIS/Include/cmsis_gcc.h **** /**
 222:Drivers/CMSIS/Include/cmsis_gcc.h ****   \brief   Enable FIQ
 223:Drivers/CMSIS/Include/cmsis_gcc.h ****   \details Enables FIQ interrupts by clearing the F-bit in the CPSR.
 224:Drivers/CMSIS/Include/cmsis_gcc.h ****            Can only be executed in Privileged modes.
 225:Drivers/CMSIS/Include/cmsis_gcc.h ****  */
 226:Drivers/CMSIS/Include/cmsis_gcc.h **** __attribute__( ( always_inline ) ) __STATIC_INLINE void __enable_fault_irq(void)
 227:Drivers/CMSIS/Include/cmsis_gcc.h **** {
 228:Drivers/CMSIS/Include/cmsis_gcc.h ****   __ASM volatile ("cpsie f" : : : "memory");
 229:Drivers/CMSIS/Include/cmsis_gcc.h **** }
 230:Drivers/CMSIS/Include/cmsis_gcc.h **** 
 231:Drivers/CMSIS/Include/cmsis_gcc.h **** 
 232:Drivers/CMSIS/Include/cmsis_gcc.h **** /**
 233:Drivers/CMSIS/Include/cmsis_gcc.h ****   \brief   Disable FIQ
 234:Drivers/CMSIS/Include/cmsis_gcc.h ****   \details Disables FIQ interrupts by setting the F-bit in the CPSR.
 235:Drivers/CMSIS/Include/cmsis_gcc.h ****            Can only be executed in Privileged modes.
 236:Drivers/CMSIS/Include/cmsis_gcc.h ****  */
 237:Drivers/CMSIS/Include/cmsis_gcc.h **** __attribute__( ( always_inline ) ) __STATIC_INLINE void __disable_fault_irq(void)
 238:Drivers/CMSIS/Include/cmsis_gcc.h **** {
 239:Drivers/CMSIS/Include/cmsis_gcc.h ****   __ASM volatile ("cpsid f" : : : "memory");
 240:Drivers/CMSIS/Include/cmsis_gcc.h **** }
 241:Drivers/CMSIS/Include/cmsis_gcc.h **** 
 242:Drivers/CMSIS/Include/cmsis_gcc.h **** 
 243:Drivers/CMSIS/Include/cmsis_gcc.h **** /**
 244:Drivers/CMSIS/Include/cmsis_gcc.h ****   \brief   Get Base Priority
 245:Drivers/CMSIS/Include/cmsis_gcc.h ****   \details Returns the current value of the Base Priority register.
 246:Drivers/CMSIS/Include/cmsis_gcc.h ****   \return               Base Priority register value
ARM GAS  C:\Users\Areg\AppData\Local\Temp\ccbt8Yka.s 			page 17


 247:Drivers/CMSIS/Include/cmsis_gcc.h ****  */
 248:Drivers/CMSIS/Include/cmsis_gcc.h **** __attribute__( ( always_inline ) ) __STATIC_INLINE uint32_t __get_BASEPRI(void)
 249:Drivers/CMSIS/Include/cmsis_gcc.h **** {
 250:Drivers/CMSIS/Include/cmsis_gcc.h ****   uint32_t result;
 251:Drivers/CMSIS/Include/cmsis_gcc.h **** 
 252:Drivers/CMSIS/Include/cmsis_gcc.h ****   __ASM volatile ("MRS %0, basepri" : "=r" (result) );
 253:Drivers/CMSIS/Include/cmsis_gcc.h ****   return(result);
 254:Drivers/CMSIS/Include/cmsis_gcc.h **** }
 255:Drivers/CMSIS/Include/cmsis_gcc.h **** 
 256:Drivers/CMSIS/Include/cmsis_gcc.h **** 
 257:Drivers/CMSIS/Include/cmsis_gcc.h **** /**
 258:Drivers/CMSIS/Include/cmsis_gcc.h ****   \brief   Set Base Priority
 259:Drivers/CMSIS/Include/cmsis_gcc.h ****   \details Assigns the given value to the Base Priority register.
 260:Drivers/CMSIS/Include/cmsis_gcc.h ****   \param [in]    basePri  Base Priority value to set
 261:Drivers/CMSIS/Include/cmsis_gcc.h ****  */
 262:Drivers/CMSIS/Include/cmsis_gcc.h **** __attribute__( ( always_inline ) ) __STATIC_INLINE void __set_BASEPRI(uint32_t value)
 263:Drivers/CMSIS/Include/cmsis_gcc.h **** {
 264:Drivers/CMSIS/Include/cmsis_gcc.h ****   __ASM volatile ("MSR basepri, %0" : : "r" (value) : "memory");
 265:Drivers/CMSIS/Include/cmsis_gcc.h **** }
 266:Drivers/CMSIS/Include/cmsis_gcc.h **** 
 267:Drivers/CMSIS/Include/cmsis_gcc.h **** 
 268:Drivers/CMSIS/Include/cmsis_gcc.h **** /**
 269:Drivers/CMSIS/Include/cmsis_gcc.h ****   \brief   Set Base Priority with condition
 270:Drivers/CMSIS/Include/cmsis_gcc.h ****   \details Assigns the given value to the Base Priority register only if BASEPRI masking is disable
 271:Drivers/CMSIS/Include/cmsis_gcc.h ****            or the new value increases the BASEPRI priority level.
 272:Drivers/CMSIS/Include/cmsis_gcc.h ****   \param [in]    basePri  Base Priority value to set
 273:Drivers/CMSIS/Include/cmsis_gcc.h ****  */
 274:Drivers/CMSIS/Include/cmsis_gcc.h **** __attribute__( ( always_inline ) ) __STATIC_INLINE void __set_BASEPRI_MAX(uint32_t value)
 275:Drivers/CMSIS/Include/cmsis_gcc.h **** {
 276:Drivers/CMSIS/Include/cmsis_gcc.h ****   __ASM volatile ("MSR basepri_max, %0" : : "r" (value) : "memory");
 277:Drivers/CMSIS/Include/cmsis_gcc.h **** }
 278:Drivers/CMSIS/Include/cmsis_gcc.h **** 
 279:Drivers/CMSIS/Include/cmsis_gcc.h **** 
 280:Drivers/CMSIS/Include/cmsis_gcc.h **** /**
 281:Drivers/CMSIS/Include/cmsis_gcc.h ****   \brief   Get Fault Mask
 282:Drivers/CMSIS/Include/cmsis_gcc.h ****   \details Returns the current value of the Fault Mask register.
 283:Drivers/CMSIS/Include/cmsis_gcc.h ****   \return               Fault Mask register value
 284:Drivers/CMSIS/Include/cmsis_gcc.h ****  */
 285:Drivers/CMSIS/Include/cmsis_gcc.h **** __attribute__( ( always_inline ) ) __STATIC_INLINE uint32_t __get_FAULTMASK(void)
 286:Drivers/CMSIS/Include/cmsis_gcc.h **** {
 287:Drivers/CMSIS/Include/cmsis_gcc.h ****   uint32_t result;
 288:Drivers/CMSIS/Include/cmsis_gcc.h **** 
 289:Drivers/CMSIS/Include/cmsis_gcc.h ****   __ASM volatile ("MRS %0, faultmask" : "=r" (result) );
 290:Drivers/CMSIS/Include/cmsis_gcc.h ****   return(result);
 291:Drivers/CMSIS/Include/cmsis_gcc.h **** }
 292:Drivers/CMSIS/Include/cmsis_gcc.h **** 
 293:Drivers/CMSIS/Include/cmsis_gcc.h **** 
 294:Drivers/CMSIS/Include/cmsis_gcc.h **** /**
 295:Drivers/CMSIS/Include/cmsis_gcc.h ****   \brief   Set Fault Mask
 296:Drivers/CMSIS/Include/cmsis_gcc.h ****   \details Assigns the given value to the Fault Mask register.
 297:Drivers/CMSIS/Include/cmsis_gcc.h ****   \param [in]    faultMask  Fault Mask value to set
 298:Drivers/CMSIS/Include/cmsis_gcc.h ****  */
 299:Drivers/CMSIS/Include/cmsis_gcc.h **** __attribute__( ( always_inline ) ) __STATIC_INLINE void __set_FAULTMASK(uint32_t faultMask)
 300:Drivers/CMSIS/Include/cmsis_gcc.h **** {
 301:Drivers/CMSIS/Include/cmsis_gcc.h ****   __ASM volatile ("MSR faultmask, %0" : : "r" (faultMask) : "memory");
 302:Drivers/CMSIS/Include/cmsis_gcc.h **** }
 303:Drivers/CMSIS/Include/cmsis_gcc.h **** 
ARM GAS  C:\Users\Areg\AppData\Local\Temp\ccbt8Yka.s 			page 18


 304:Drivers/CMSIS/Include/cmsis_gcc.h **** #endif /* (__CORTEX_M >= 0x03U) */
 305:Drivers/CMSIS/Include/cmsis_gcc.h **** 
 306:Drivers/CMSIS/Include/cmsis_gcc.h **** 
 307:Drivers/CMSIS/Include/cmsis_gcc.h **** #if       (__CORTEX_M == 0x04U) || (__CORTEX_M == 0x07U)
 308:Drivers/CMSIS/Include/cmsis_gcc.h **** 
 309:Drivers/CMSIS/Include/cmsis_gcc.h **** /**
 310:Drivers/CMSIS/Include/cmsis_gcc.h ****   \brief   Get FPSCR
 311:Drivers/CMSIS/Include/cmsis_gcc.h ****   \details Returns the current value of the Floating Point Status/Control register.
 312:Drivers/CMSIS/Include/cmsis_gcc.h ****   \return               Floating Point Status/Control register value
 313:Drivers/CMSIS/Include/cmsis_gcc.h ****  */
 314:Drivers/CMSIS/Include/cmsis_gcc.h **** __attribute__( ( always_inline ) ) __STATIC_INLINE uint32_t __get_FPSCR(void)
 315:Drivers/CMSIS/Include/cmsis_gcc.h **** {
 316:Drivers/CMSIS/Include/cmsis_gcc.h **** #if (__FPU_PRESENT == 1U) && (__FPU_USED == 1U)
 317:Drivers/CMSIS/Include/cmsis_gcc.h ****   uint32_t result;
 318:Drivers/CMSIS/Include/cmsis_gcc.h **** 
 319:Drivers/CMSIS/Include/cmsis_gcc.h ****   /* Empty asm statement works as a scheduling barrier */
 320:Drivers/CMSIS/Include/cmsis_gcc.h ****   __ASM volatile ("");
 321:Drivers/CMSIS/Include/cmsis_gcc.h ****   __ASM volatile ("VMRS %0, fpscr" : "=r" (result) );
 322:Drivers/CMSIS/Include/cmsis_gcc.h ****   __ASM volatile ("");
 323:Drivers/CMSIS/Include/cmsis_gcc.h ****   return(result);
 324:Drivers/CMSIS/Include/cmsis_gcc.h **** #else
 325:Drivers/CMSIS/Include/cmsis_gcc.h ****    return(0);
 326:Drivers/CMSIS/Include/cmsis_gcc.h **** #endif
 327:Drivers/CMSIS/Include/cmsis_gcc.h **** }
 328:Drivers/CMSIS/Include/cmsis_gcc.h **** 
 329:Drivers/CMSIS/Include/cmsis_gcc.h **** 
 330:Drivers/CMSIS/Include/cmsis_gcc.h **** /**
 331:Drivers/CMSIS/Include/cmsis_gcc.h ****   \brief   Set FPSCR
 332:Drivers/CMSIS/Include/cmsis_gcc.h ****   \details Assigns the given value to the Floating Point Status/Control register.
 333:Drivers/CMSIS/Include/cmsis_gcc.h ****   \param [in]    fpscr  Floating Point Status/Control value to set
 334:Drivers/CMSIS/Include/cmsis_gcc.h ****  */
 335:Drivers/CMSIS/Include/cmsis_gcc.h **** __attribute__( ( always_inline ) ) __STATIC_INLINE void __set_FPSCR(uint32_t fpscr)
 336:Drivers/CMSIS/Include/cmsis_gcc.h **** {
 337:Drivers/CMSIS/Include/cmsis_gcc.h **** #if (__FPU_PRESENT == 1U) && (__FPU_USED == 1U)
 338:Drivers/CMSIS/Include/cmsis_gcc.h ****   /* Empty asm statement works as a scheduling barrier */
 339:Drivers/CMSIS/Include/cmsis_gcc.h ****   __ASM volatile ("");
 340:Drivers/CMSIS/Include/cmsis_gcc.h ****   __ASM volatile ("VMSR fpscr, %0" : : "r" (fpscr) : "vfpcc");
 341:Drivers/CMSIS/Include/cmsis_gcc.h ****   __ASM volatile ("");
 342:Drivers/CMSIS/Include/cmsis_gcc.h **** #endif
 343:Drivers/CMSIS/Include/cmsis_gcc.h **** }
 344:Drivers/CMSIS/Include/cmsis_gcc.h **** 
 345:Drivers/CMSIS/Include/cmsis_gcc.h **** #endif /* (__CORTEX_M == 0x04U) || (__CORTEX_M == 0x07U) */
 346:Drivers/CMSIS/Include/cmsis_gcc.h **** 
 347:Drivers/CMSIS/Include/cmsis_gcc.h **** 
 348:Drivers/CMSIS/Include/cmsis_gcc.h **** 
 349:Drivers/CMSIS/Include/cmsis_gcc.h **** /*@} end of CMSIS_Core_RegAccFunctions */
 350:Drivers/CMSIS/Include/cmsis_gcc.h **** 
 351:Drivers/CMSIS/Include/cmsis_gcc.h **** 
 352:Drivers/CMSIS/Include/cmsis_gcc.h **** /* ##########################  Core Instruction Access  ######################### */
 353:Drivers/CMSIS/Include/cmsis_gcc.h **** /** \defgroup CMSIS_Core_InstructionInterface CMSIS Core Instruction Interface
 354:Drivers/CMSIS/Include/cmsis_gcc.h ****   Access to dedicated instructions
 355:Drivers/CMSIS/Include/cmsis_gcc.h ****   @{
 356:Drivers/CMSIS/Include/cmsis_gcc.h **** */
 357:Drivers/CMSIS/Include/cmsis_gcc.h **** 
 358:Drivers/CMSIS/Include/cmsis_gcc.h **** /* Define macros for porting to both thumb1 and thumb2.
 359:Drivers/CMSIS/Include/cmsis_gcc.h ****  * For thumb1, use low register (r0-r7), specified by constraint "l"
 360:Drivers/CMSIS/Include/cmsis_gcc.h ****  * Otherwise, use general registers, specified by constraint "r" */
ARM GAS  C:\Users\Areg\AppData\Local\Temp\ccbt8Yka.s 			page 19


 361:Drivers/CMSIS/Include/cmsis_gcc.h **** #if defined (__thumb__) && !defined (__thumb2__)
 362:Drivers/CMSIS/Include/cmsis_gcc.h **** #define __CMSIS_GCC_OUT_REG(r) "=l" (r)
 363:Drivers/CMSIS/Include/cmsis_gcc.h **** #define __CMSIS_GCC_USE_REG(r) "l" (r)
 364:Drivers/CMSIS/Include/cmsis_gcc.h **** #else
 365:Drivers/CMSIS/Include/cmsis_gcc.h **** #define __CMSIS_GCC_OUT_REG(r) "=r" (r)
 366:Drivers/CMSIS/Include/cmsis_gcc.h **** #define __CMSIS_GCC_USE_REG(r) "r" (r)
 367:Drivers/CMSIS/Include/cmsis_gcc.h **** #endif
 368:Drivers/CMSIS/Include/cmsis_gcc.h **** 
 369:Drivers/CMSIS/Include/cmsis_gcc.h **** /**
 370:Drivers/CMSIS/Include/cmsis_gcc.h ****   \brief   No Operation
 371:Drivers/CMSIS/Include/cmsis_gcc.h ****   \details No Operation does nothing. This instruction can be used for code alignment purposes.
 372:Drivers/CMSIS/Include/cmsis_gcc.h ****  */
 373:Drivers/CMSIS/Include/cmsis_gcc.h **** __attribute__((always_inline)) __STATIC_INLINE void __NOP(void)
 374:Drivers/CMSIS/Include/cmsis_gcc.h **** {
 375:Drivers/CMSIS/Include/cmsis_gcc.h ****   __ASM volatile ("nop");
 376:Drivers/CMSIS/Include/cmsis_gcc.h **** }
 377:Drivers/CMSIS/Include/cmsis_gcc.h **** 
 378:Drivers/CMSIS/Include/cmsis_gcc.h **** 
 379:Drivers/CMSIS/Include/cmsis_gcc.h **** /**
 380:Drivers/CMSIS/Include/cmsis_gcc.h ****   \brief   Wait For Interrupt
 381:Drivers/CMSIS/Include/cmsis_gcc.h ****   \details Wait For Interrupt is a hint instruction that suspends execution until one of a number o
 382:Drivers/CMSIS/Include/cmsis_gcc.h ****  */
 383:Drivers/CMSIS/Include/cmsis_gcc.h **** __attribute__((always_inline)) __STATIC_INLINE void __WFI(void)
 384:Drivers/CMSIS/Include/cmsis_gcc.h **** {
 385:Drivers/CMSIS/Include/cmsis_gcc.h ****   __ASM volatile ("wfi");
 386:Drivers/CMSIS/Include/cmsis_gcc.h **** }
 387:Drivers/CMSIS/Include/cmsis_gcc.h **** 
 388:Drivers/CMSIS/Include/cmsis_gcc.h **** 
 389:Drivers/CMSIS/Include/cmsis_gcc.h **** /**
 390:Drivers/CMSIS/Include/cmsis_gcc.h ****   \brief   Wait For Event
 391:Drivers/CMSIS/Include/cmsis_gcc.h ****   \details Wait For Event is a hint instruction that permits the processor to enter
 392:Drivers/CMSIS/Include/cmsis_gcc.h ****     a low-power state until one of a number of events occurs.
 393:Drivers/CMSIS/Include/cmsis_gcc.h ****  */
 394:Drivers/CMSIS/Include/cmsis_gcc.h **** __attribute__((always_inline)) __STATIC_INLINE void __WFE(void)
 395:Drivers/CMSIS/Include/cmsis_gcc.h **** {
 396:Drivers/CMSIS/Include/cmsis_gcc.h ****   __ASM volatile ("wfe");
 397:Drivers/CMSIS/Include/cmsis_gcc.h **** }
 398:Drivers/CMSIS/Include/cmsis_gcc.h **** 
 399:Drivers/CMSIS/Include/cmsis_gcc.h **** 
 400:Drivers/CMSIS/Include/cmsis_gcc.h **** /**
 401:Drivers/CMSIS/Include/cmsis_gcc.h ****   \brief   Send Event
 402:Drivers/CMSIS/Include/cmsis_gcc.h ****   \details Send Event is a hint instruction. It causes an event to be signaled to the CPU.
 403:Drivers/CMSIS/Include/cmsis_gcc.h ****  */
 404:Drivers/CMSIS/Include/cmsis_gcc.h **** __attribute__((always_inline)) __STATIC_INLINE void __SEV(void)
 405:Drivers/CMSIS/Include/cmsis_gcc.h **** {
 406:Drivers/CMSIS/Include/cmsis_gcc.h ****   __ASM volatile ("sev");
 407:Drivers/CMSIS/Include/cmsis_gcc.h **** }
 408:Drivers/CMSIS/Include/cmsis_gcc.h **** 
 409:Drivers/CMSIS/Include/cmsis_gcc.h **** 
 410:Drivers/CMSIS/Include/cmsis_gcc.h **** /**
 411:Drivers/CMSIS/Include/cmsis_gcc.h ****   \brief   Instruction Synchronization Barrier
 412:Drivers/CMSIS/Include/cmsis_gcc.h ****   \details Instruction Synchronization Barrier flushes the pipeline in the processor,
 413:Drivers/CMSIS/Include/cmsis_gcc.h ****            so that all instructions following the ISB are fetched from cache or memory,
 414:Drivers/CMSIS/Include/cmsis_gcc.h ****            after the instruction has been completed.
 415:Drivers/CMSIS/Include/cmsis_gcc.h ****  */
 416:Drivers/CMSIS/Include/cmsis_gcc.h **** __attribute__((always_inline)) __STATIC_INLINE void __ISB(void)
 417:Drivers/CMSIS/Include/cmsis_gcc.h **** {
ARM GAS  C:\Users\Areg\AppData\Local\Temp\ccbt8Yka.s 			page 20


 418:Drivers/CMSIS/Include/cmsis_gcc.h ****   __ASM volatile ("isb 0xF":::"memory");
 419:Drivers/CMSIS/Include/cmsis_gcc.h **** }
 420:Drivers/CMSIS/Include/cmsis_gcc.h **** 
 421:Drivers/CMSIS/Include/cmsis_gcc.h **** 
 422:Drivers/CMSIS/Include/cmsis_gcc.h **** /**
 423:Drivers/CMSIS/Include/cmsis_gcc.h ****   \brief   Data Synchronization Barrier
 424:Drivers/CMSIS/Include/cmsis_gcc.h ****   \details Acts as a special kind of Data Memory Barrier.
 425:Drivers/CMSIS/Include/cmsis_gcc.h ****            It completes when all explicit memory accesses before this instruction complete.
 426:Drivers/CMSIS/Include/cmsis_gcc.h ****  */
 427:Drivers/CMSIS/Include/cmsis_gcc.h **** __attribute__((always_inline)) __STATIC_INLINE void __DSB(void)
 428:Drivers/CMSIS/Include/cmsis_gcc.h **** {
 429:Drivers/CMSIS/Include/cmsis_gcc.h ****   __ASM volatile ("dsb 0xF":::"memory");
 430:Drivers/CMSIS/Include/cmsis_gcc.h **** }
 431:Drivers/CMSIS/Include/cmsis_gcc.h **** 
 432:Drivers/CMSIS/Include/cmsis_gcc.h **** 
 433:Drivers/CMSIS/Include/cmsis_gcc.h **** /**
 434:Drivers/CMSIS/Include/cmsis_gcc.h ****   \brief   Data Memory Barrier
 435:Drivers/CMSIS/Include/cmsis_gcc.h ****   \details Ensures the apparent order of the explicit memory operations before
 436:Drivers/CMSIS/Include/cmsis_gcc.h ****            and after the instruction, without ensuring their completion.
 437:Drivers/CMSIS/Include/cmsis_gcc.h ****  */
 438:Drivers/CMSIS/Include/cmsis_gcc.h **** __attribute__((always_inline)) __STATIC_INLINE void __DMB(void)
 439:Drivers/CMSIS/Include/cmsis_gcc.h **** {
 440:Drivers/CMSIS/Include/cmsis_gcc.h ****   __ASM volatile ("dmb 0xF":::"memory");
 441:Drivers/CMSIS/Include/cmsis_gcc.h **** }
 442:Drivers/CMSIS/Include/cmsis_gcc.h **** 
 443:Drivers/CMSIS/Include/cmsis_gcc.h **** 
 444:Drivers/CMSIS/Include/cmsis_gcc.h **** /**
 445:Drivers/CMSIS/Include/cmsis_gcc.h ****   \brief   Reverse byte order (32 bit)
 446:Drivers/CMSIS/Include/cmsis_gcc.h ****   \details Reverses the byte order in integer value.
 447:Drivers/CMSIS/Include/cmsis_gcc.h ****   \param [in]    value  Value to reverse
 448:Drivers/CMSIS/Include/cmsis_gcc.h ****   \return               Reversed value
 449:Drivers/CMSIS/Include/cmsis_gcc.h ****  */
 450:Drivers/CMSIS/Include/cmsis_gcc.h **** __attribute__((always_inline)) __STATIC_INLINE uint32_t __REV(uint32_t value)
 451:Drivers/CMSIS/Include/cmsis_gcc.h **** {
 452:Drivers/CMSIS/Include/cmsis_gcc.h **** #if (__GNUC__ > 4) || (__GNUC__ == 4 && __GNUC_MINOR__ >= 5)
 453:Drivers/CMSIS/Include/cmsis_gcc.h ****   return __builtin_bswap32(value);
 454:Drivers/CMSIS/Include/cmsis_gcc.h **** #else
 455:Drivers/CMSIS/Include/cmsis_gcc.h ****   uint32_t result;
 456:Drivers/CMSIS/Include/cmsis_gcc.h **** 
 457:Drivers/CMSIS/Include/cmsis_gcc.h ****   __ASM volatile ("rev %0, %1" : __CMSIS_GCC_OUT_REG (result) : __CMSIS_GCC_USE_REG (value) );
 458:Drivers/CMSIS/Include/cmsis_gcc.h ****   return(result);
 459:Drivers/CMSIS/Include/cmsis_gcc.h **** #endif
 460:Drivers/CMSIS/Include/cmsis_gcc.h **** }
 461:Drivers/CMSIS/Include/cmsis_gcc.h **** 
 462:Drivers/CMSIS/Include/cmsis_gcc.h **** 
 463:Drivers/CMSIS/Include/cmsis_gcc.h **** /**
 464:Drivers/CMSIS/Include/cmsis_gcc.h ****   \brief   Reverse byte order (16 bit)
 465:Drivers/CMSIS/Include/cmsis_gcc.h ****   \details Reverses the byte order in two unsigned short values.
 466:Drivers/CMSIS/Include/cmsis_gcc.h ****   \param [in]    value  Value to reverse
 467:Drivers/CMSIS/Include/cmsis_gcc.h ****   \return               Reversed value
 468:Drivers/CMSIS/Include/cmsis_gcc.h ****  */
 469:Drivers/CMSIS/Include/cmsis_gcc.h **** __attribute__((always_inline)) __STATIC_INLINE uint32_t __REV16(uint32_t value)
 470:Drivers/CMSIS/Include/cmsis_gcc.h **** {
 471:Drivers/CMSIS/Include/cmsis_gcc.h ****   uint32_t result;
 472:Drivers/CMSIS/Include/cmsis_gcc.h **** 
 473:Drivers/CMSIS/Include/cmsis_gcc.h ****   __ASM volatile ("rev16 %0, %1" : __CMSIS_GCC_OUT_REG (result) : __CMSIS_GCC_USE_REG (value) );
 474:Drivers/CMSIS/Include/cmsis_gcc.h ****   return(result);
ARM GAS  C:\Users\Areg\AppData\Local\Temp\ccbt8Yka.s 			page 21


 475:Drivers/CMSIS/Include/cmsis_gcc.h **** }
 476:Drivers/CMSIS/Include/cmsis_gcc.h **** 
 477:Drivers/CMSIS/Include/cmsis_gcc.h **** 
 478:Drivers/CMSIS/Include/cmsis_gcc.h **** /**
 479:Drivers/CMSIS/Include/cmsis_gcc.h ****   \brief   Reverse byte order in signed short value
 480:Drivers/CMSIS/Include/cmsis_gcc.h ****   \details Reverses the byte order in a signed short value with sign extension to integer.
 481:Drivers/CMSIS/Include/cmsis_gcc.h ****   \param [in]    value  Value to reverse
 482:Drivers/CMSIS/Include/cmsis_gcc.h ****   \return               Reversed value
 483:Drivers/CMSIS/Include/cmsis_gcc.h ****  */
 484:Drivers/CMSIS/Include/cmsis_gcc.h **** __attribute__((always_inline)) __STATIC_INLINE int32_t __REVSH(int32_t value)
 485:Drivers/CMSIS/Include/cmsis_gcc.h **** {
 486:Drivers/CMSIS/Include/cmsis_gcc.h **** #if (__GNUC__ > 4) || (__GNUC__ == 4 && __GNUC_MINOR__ >= 8)
 487:Drivers/CMSIS/Include/cmsis_gcc.h ****   return (short)__builtin_bswap16(value);
 488:Drivers/CMSIS/Include/cmsis_gcc.h **** #else
 489:Drivers/CMSIS/Include/cmsis_gcc.h ****   int32_t result;
 490:Drivers/CMSIS/Include/cmsis_gcc.h **** 
 491:Drivers/CMSIS/Include/cmsis_gcc.h ****   __ASM volatile ("revsh %0, %1" : __CMSIS_GCC_OUT_REG (result) : __CMSIS_GCC_USE_REG (value) );
 492:Drivers/CMSIS/Include/cmsis_gcc.h ****   return(result);
 493:Drivers/CMSIS/Include/cmsis_gcc.h **** #endif
 494:Drivers/CMSIS/Include/cmsis_gcc.h **** }
 495:Drivers/CMSIS/Include/cmsis_gcc.h **** 
 496:Drivers/CMSIS/Include/cmsis_gcc.h **** 
 497:Drivers/CMSIS/Include/cmsis_gcc.h **** /**
 498:Drivers/CMSIS/Include/cmsis_gcc.h ****   \brief   Rotate Right in unsigned value (32 bit)
 499:Drivers/CMSIS/Include/cmsis_gcc.h ****   \details Rotate Right (immediate) provides the value of the contents of a register rotated by a v
 500:Drivers/CMSIS/Include/cmsis_gcc.h ****   \param [in]    value  Value to rotate
 501:Drivers/CMSIS/Include/cmsis_gcc.h ****   \param [in]    value  Number of Bits to rotate
 502:Drivers/CMSIS/Include/cmsis_gcc.h ****   \return               Rotated value
 503:Drivers/CMSIS/Include/cmsis_gcc.h ****  */
 504:Drivers/CMSIS/Include/cmsis_gcc.h **** __attribute__((always_inline)) __STATIC_INLINE uint32_t __ROR(uint32_t op1, uint32_t op2)
 505:Drivers/CMSIS/Include/cmsis_gcc.h **** {
 506:Drivers/CMSIS/Include/cmsis_gcc.h ****   return (op1 >> op2) | (op1 << (32U - op2));
 507:Drivers/CMSIS/Include/cmsis_gcc.h **** }
 508:Drivers/CMSIS/Include/cmsis_gcc.h **** 
 509:Drivers/CMSIS/Include/cmsis_gcc.h **** 
 510:Drivers/CMSIS/Include/cmsis_gcc.h **** /**
 511:Drivers/CMSIS/Include/cmsis_gcc.h ****   \brief   Breakpoint
 512:Drivers/CMSIS/Include/cmsis_gcc.h ****   \details Causes the processor to enter Debug state.
 513:Drivers/CMSIS/Include/cmsis_gcc.h ****            Debug tools can use this to investigate system state when the instruction at a particula
 514:Drivers/CMSIS/Include/cmsis_gcc.h ****   \param [in]    value  is ignored by the processor.
 515:Drivers/CMSIS/Include/cmsis_gcc.h ****                  If required, a debugger can use it to store additional information about the break
 516:Drivers/CMSIS/Include/cmsis_gcc.h ****  */
 517:Drivers/CMSIS/Include/cmsis_gcc.h **** #define __BKPT(value)                       __ASM volatile ("bkpt "#value)
 518:Drivers/CMSIS/Include/cmsis_gcc.h **** 
 519:Drivers/CMSIS/Include/cmsis_gcc.h **** 
 520:Drivers/CMSIS/Include/cmsis_gcc.h **** /**
 521:Drivers/CMSIS/Include/cmsis_gcc.h ****   \brief   Reverse bit order of value
 522:Drivers/CMSIS/Include/cmsis_gcc.h ****   \details Reverses the bit order of the given value.
 523:Drivers/CMSIS/Include/cmsis_gcc.h ****   \param [in]    value  Value to reverse
 524:Drivers/CMSIS/Include/cmsis_gcc.h ****   \return               Reversed value
 525:Drivers/CMSIS/Include/cmsis_gcc.h ****  */
 526:Drivers/CMSIS/Include/cmsis_gcc.h **** __attribute__((always_inline)) __STATIC_INLINE uint32_t __RBIT(uint32_t value)
 527:Drivers/CMSIS/Include/cmsis_gcc.h **** {
 528:Drivers/CMSIS/Include/cmsis_gcc.h ****   uint32_t result;
 529:Drivers/CMSIS/Include/cmsis_gcc.h **** 
 530:Drivers/CMSIS/Include/cmsis_gcc.h **** #if       (__CORTEX_M >= 0x03U) || (__CORTEX_SC >= 300U)
 531:Drivers/CMSIS/Include/cmsis_gcc.h ****    __ASM volatile ("rbit %0, %1" : "=r" (result) : "r" (value) );
ARM GAS  C:\Users\Areg\AppData\Local\Temp\ccbt8Yka.s 			page 22


 281              		.loc 2 531 0
 282              		.syntax unified
 283              	@ 531 "Drivers/CMSIS/Include/cmsis_gcc.h" 1
 284 0000 90FAA0F0 		rbit r0, r0
 285              	@ 0 "" 2
 286              	.LVL2:
 287              		.thumb
 288              		.syntax unified
 289              	.LBE21:
 290              	.LBE20:
 402:Drivers/STM32F1xx_HAL_Driver/Src/stm32f1xx_hal_pwr.c ****   /* Check the parameter */
 403:Drivers/STM32F1xx_HAL_Driver/Src/stm32f1xx_hal_pwr.c ****   assert_param(IS_PWR_WAKEUP_PIN(WakeUpPinx));
 404:Drivers/STM32F1xx_HAL_Driver/Src/stm32f1xx_hal_pwr.c ****   /* Enable the EWUPx pin */
 405:Drivers/STM32F1xx_HAL_Driver/Src/stm32f1xx_hal_pwr.c ****   *(__IO uint32_t *) CSR_EWUP_BB(WakeUpPinx) = (uint32_t)ENABLE;
 291              		.loc 1 405 0
 292 0004 B0FA80F0 		clz	r0, r0
 293 0008 024B     		ldr	r3, .L25
 294 000a 0344     		add	r3, r3, r0
 295 000c 9B00     		lsls	r3, r3, #2
 296 000e 0122     		movs	r2, #1
 297 0010 1A60     		str	r2, [r3]
 298 0012 7047     		bx	lr
 299              	.L26:
 300              		.align	2
 301              	.L25:
 302 0014 20808310 		.word	277053472
 303              		.cfi_endproc
 304              	.LFE71:
 306              		.section	.text.HAL_PWR_DisableWakeUpPin,"ax",%progbits
 307              		.align	2
 308              		.global	HAL_PWR_DisableWakeUpPin
 309              		.thumb
 310              		.thumb_func
 312              	HAL_PWR_DisableWakeUpPin:
 313              	.LFB72:
 406:Drivers/STM32F1xx_HAL_Driver/Src/stm32f1xx_hal_pwr.c **** }
 407:Drivers/STM32F1xx_HAL_Driver/Src/stm32f1xx_hal_pwr.c **** 
 408:Drivers/STM32F1xx_HAL_Driver/Src/stm32f1xx_hal_pwr.c **** /**
 409:Drivers/STM32F1xx_HAL_Driver/Src/stm32f1xx_hal_pwr.c ****   * @brief Disables the WakeUp PINx functionality.
 410:Drivers/STM32F1xx_HAL_Driver/Src/stm32f1xx_hal_pwr.c ****   * @param WakeUpPinx: Specifies the Power Wake-Up pin to disable.
 411:Drivers/STM32F1xx_HAL_Driver/Src/stm32f1xx_hal_pwr.c ****   *        This parameter can be one of the following values:
 412:Drivers/STM32F1xx_HAL_Driver/Src/stm32f1xx_hal_pwr.c ****   *           @arg PWR_WAKEUP_PIN1
 413:Drivers/STM32F1xx_HAL_Driver/Src/stm32f1xx_hal_pwr.c ****   * @retval None
 414:Drivers/STM32F1xx_HAL_Driver/Src/stm32f1xx_hal_pwr.c ****   */
 415:Drivers/STM32F1xx_HAL_Driver/Src/stm32f1xx_hal_pwr.c **** void HAL_PWR_DisableWakeUpPin(uint32_t WakeUpPinx)
 416:Drivers/STM32F1xx_HAL_Driver/Src/stm32f1xx_hal_pwr.c **** {
 314              		.loc 1 416 0
 315              		.cfi_startproc
 316              		@ args = 0, pretend = 0, frame = 0
 317              		@ frame_needed = 0, uses_anonymous_args = 0
 318              		@ link register save eliminated.
 319              	.LVL3:
 320              	.LBB22:
 321              	.LBB23:
 322              		.loc 2 531 0
 323              		.syntax unified
 324              	@ 531 "Drivers/CMSIS/Include/cmsis_gcc.h" 1
ARM GAS  C:\Users\Areg\AppData\Local\Temp\ccbt8Yka.s 			page 23


 325 0000 90FAA0F0 		rbit r0, r0
 326              	@ 0 "" 2
 327              	.LVL4:
 328              		.thumb
 329              		.syntax unified
 330              	.LBE23:
 331              	.LBE22:
 417:Drivers/STM32F1xx_HAL_Driver/Src/stm32f1xx_hal_pwr.c ****   /* Check the parameter */
 418:Drivers/STM32F1xx_HAL_Driver/Src/stm32f1xx_hal_pwr.c ****   assert_param(IS_PWR_WAKEUP_PIN(WakeUpPinx));
 419:Drivers/STM32F1xx_HAL_Driver/Src/stm32f1xx_hal_pwr.c ****   /* Disable the EWUPx pin */
 420:Drivers/STM32F1xx_HAL_Driver/Src/stm32f1xx_hal_pwr.c ****   *(__IO uint32_t *) CSR_EWUP_BB(WakeUpPinx) = (uint32_t)DISABLE;
 332              		.loc 1 420 0
 333 0004 B0FA80F0 		clz	r0, r0
 334 0008 024B     		ldr	r3, .L28
 335 000a 0344     		add	r3, r3, r0
 336 000c 9B00     		lsls	r3, r3, #2
 337 000e 0022     		movs	r2, #0
 338 0010 1A60     		str	r2, [r3]
 339 0012 7047     		bx	lr
 340              	.L29:
 341              		.align	2
 342              	.L28:
 343 0014 20808310 		.word	277053472
 344              		.cfi_endproc
 345              	.LFE72:
 347              		.section	.text.HAL_PWR_EnterSLEEPMode,"ax",%progbits
 348              		.align	2
 349              		.global	HAL_PWR_EnterSLEEPMode
 350              		.thumb
 351              		.thumb_func
 353              	HAL_PWR_EnterSLEEPMode:
 354              	.LFB73:
 421:Drivers/STM32F1xx_HAL_Driver/Src/stm32f1xx_hal_pwr.c **** }
 422:Drivers/STM32F1xx_HAL_Driver/Src/stm32f1xx_hal_pwr.c **** 
 423:Drivers/STM32F1xx_HAL_Driver/Src/stm32f1xx_hal_pwr.c **** /**
 424:Drivers/STM32F1xx_HAL_Driver/Src/stm32f1xx_hal_pwr.c ****   * @brief Enters Sleep mode.
 425:Drivers/STM32F1xx_HAL_Driver/Src/stm32f1xx_hal_pwr.c ****   * @note  In Sleep mode, all I/O pins keep the same state as in Run mode.
 426:Drivers/STM32F1xx_HAL_Driver/Src/stm32f1xx_hal_pwr.c ****   * @param Regulator: Regulator state as no effect in SLEEP mode -  allows to support portability f
 427:Drivers/STM32F1xx_HAL_Driver/Src/stm32f1xx_hal_pwr.c ****   * @param SLEEPEntry: Specifies if SLEEP mode is entered with WFI or WFE instruction.
 428:Drivers/STM32F1xx_HAL_Driver/Src/stm32f1xx_hal_pwr.c ****   *           When WFI entry is used, tick interrupt have to be disabled if not desired as 
 429:Drivers/STM32F1xx_HAL_Driver/Src/stm32f1xx_hal_pwr.c ****   *           the interrupt wake up source.
 430:Drivers/STM32F1xx_HAL_Driver/Src/stm32f1xx_hal_pwr.c ****   *           This parameter can be one of the following values:
 431:Drivers/STM32F1xx_HAL_Driver/Src/stm32f1xx_hal_pwr.c ****   *            @arg PWR_SLEEPENTRY_WFI: enter SLEEP mode with WFI instruction
 432:Drivers/STM32F1xx_HAL_Driver/Src/stm32f1xx_hal_pwr.c ****   *            @arg PWR_SLEEPENTRY_WFE: enter SLEEP mode with WFE instruction
 433:Drivers/STM32F1xx_HAL_Driver/Src/stm32f1xx_hal_pwr.c ****   * @retval None
 434:Drivers/STM32F1xx_HAL_Driver/Src/stm32f1xx_hal_pwr.c ****   */
 435:Drivers/STM32F1xx_HAL_Driver/Src/stm32f1xx_hal_pwr.c **** void HAL_PWR_EnterSLEEPMode(uint32_t Regulator, uint8_t SLEEPEntry)
 436:Drivers/STM32F1xx_HAL_Driver/Src/stm32f1xx_hal_pwr.c **** {
 355              		.loc 1 436 0
 356              		.cfi_startproc
 357              		@ args = 0, pretend = 0, frame = 0
 358              		@ frame_needed = 0, uses_anonymous_args = 0
 359              		@ link register save eliminated.
 360              	.LVL5:
 437:Drivers/STM32F1xx_HAL_Driver/Src/stm32f1xx_hal_pwr.c ****   /* Check the parameters */
 438:Drivers/STM32F1xx_HAL_Driver/Src/stm32f1xx_hal_pwr.c ****   /* No check on Regulator because parameter not used in SLEEP mode */
 439:Drivers/STM32F1xx_HAL_Driver/Src/stm32f1xx_hal_pwr.c ****   /* Prevent unused argument(s) compilation warning */
ARM GAS  C:\Users\Areg\AppData\Local\Temp\ccbt8Yka.s 			page 24


 440:Drivers/STM32F1xx_HAL_Driver/Src/stm32f1xx_hal_pwr.c ****   UNUSED(Regulator);
 441:Drivers/STM32F1xx_HAL_Driver/Src/stm32f1xx_hal_pwr.c **** 
 442:Drivers/STM32F1xx_HAL_Driver/Src/stm32f1xx_hal_pwr.c ****   assert_param(IS_PWR_SLEEP_ENTRY(SLEEPEntry));
 443:Drivers/STM32F1xx_HAL_Driver/Src/stm32f1xx_hal_pwr.c **** 
 444:Drivers/STM32F1xx_HAL_Driver/Src/stm32f1xx_hal_pwr.c ****   /* Clear SLEEPDEEP bit of Cortex System Control Register */
 445:Drivers/STM32F1xx_HAL_Driver/Src/stm32f1xx_hal_pwr.c ****   CLEAR_BIT(SCB->SCR, ((uint32_t)SCB_SCR_SLEEPDEEP_Msk));
 361              		.loc 1 445 0
 362 0000 064A     		ldr	r2, .L33
 363 0002 1369     		ldr	r3, [r2, #16]
 364 0004 23F00403 		bic	r3, r3, #4
 365 0008 1361     		str	r3, [r2, #16]
 446:Drivers/STM32F1xx_HAL_Driver/Src/stm32f1xx_hal_pwr.c **** 
 447:Drivers/STM32F1xx_HAL_Driver/Src/stm32f1xx_hal_pwr.c ****   /* Select SLEEP mode entry -------------------------------------------------*/
 448:Drivers/STM32F1xx_HAL_Driver/Src/stm32f1xx_hal_pwr.c ****   if(SLEEPEntry == PWR_SLEEPENTRY_WFI)
 366              		.loc 1 448 0
 367 000a 0129     		cmp	r1, #1
 368 000c 01D1     		bne	.L31
 369              	.LBB24:
 370              	.LBB25:
 385:Drivers/CMSIS/Include/cmsis_gcc.h **** }
 371              		.loc 2 385 0
 372              		.syntax unified
 373              	@ 385 "Drivers/CMSIS/Include/cmsis_gcc.h" 1
 374 000e 30BF     		wfi
 375              	@ 0 "" 2
 376              		.thumb
 377              		.syntax unified
 378 0010 7047     		bx	lr
 379              	.L31:
 380              	.LBE25:
 381              	.LBE24:
 382              	.LBB26:
 383              	.LBB27:
 406:Drivers/CMSIS/Include/cmsis_gcc.h **** }
 384              		.loc 2 406 0
 385              		.syntax unified
 386              	@ 406 "Drivers/CMSIS/Include/cmsis_gcc.h" 1
 387 0012 40BF     		sev
 388              	@ 0 "" 2
 389              		.thumb
 390              		.syntax unified
 391              	.LBE27:
 392              	.LBE26:
 393              	.LBB28:
 394              	.LBB29:
 396:Drivers/CMSIS/Include/cmsis_gcc.h **** }
 395              		.loc 2 396 0
 396              		.syntax unified
 397              	@ 396 "Drivers/CMSIS/Include/cmsis_gcc.h" 1
 398 0014 20BF     		wfe
 399              	@ 0 "" 2
 400              		.thumb
 401              		.syntax unified
 402              	.LBE29:
 403              	.LBE28:
 404              	.LBB30:
 405              	.LBB31:
ARM GAS  C:\Users\Areg\AppData\Local\Temp\ccbt8Yka.s 			page 25


 406              		.syntax unified
 407              	@ 396 "Drivers/CMSIS/Include/cmsis_gcc.h" 1
 408 0016 20BF     		wfe
 409              	@ 0 "" 2
 410              		.thumb
 411              		.syntax unified
 412 0018 7047     		bx	lr
 413              	.L34:
 414 001a 00BF     		.align	2
 415              	.L33:
 416 001c 00ED00E0 		.word	-536810240
 417              	.LBE31:
 418              	.LBE30:
 419              		.cfi_endproc
 420              	.LFE73:
 422              		.section	.text.HAL_PWR_EnterSTOPMode,"ax",%progbits
 423              		.align	2
 424              		.global	HAL_PWR_EnterSTOPMode
 425              		.thumb
 426              		.thumb_func
 428              	HAL_PWR_EnterSTOPMode:
 429              	.LFB74:
 449:Drivers/STM32F1xx_HAL_Driver/Src/stm32f1xx_hal_pwr.c ****   {
 450:Drivers/STM32F1xx_HAL_Driver/Src/stm32f1xx_hal_pwr.c ****     /* Request Wait For Interrupt */
 451:Drivers/STM32F1xx_HAL_Driver/Src/stm32f1xx_hal_pwr.c ****     __WFI();
 452:Drivers/STM32F1xx_HAL_Driver/Src/stm32f1xx_hal_pwr.c ****   }
 453:Drivers/STM32F1xx_HAL_Driver/Src/stm32f1xx_hal_pwr.c ****   else
 454:Drivers/STM32F1xx_HAL_Driver/Src/stm32f1xx_hal_pwr.c ****   {
 455:Drivers/STM32F1xx_HAL_Driver/Src/stm32f1xx_hal_pwr.c ****     /* Request Wait For Event */
 456:Drivers/STM32F1xx_HAL_Driver/Src/stm32f1xx_hal_pwr.c ****     __SEV();
 457:Drivers/STM32F1xx_HAL_Driver/Src/stm32f1xx_hal_pwr.c ****     __WFE();
 458:Drivers/STM32F1xx_HAL_Driver/Src/stm32f1xx_hal_pwr.c ****     __WFE();
 459:Drivers/STM32F1xx_HAL_Driver/Src/stm32f1xx_hal_pwr.c ****   }
 460:Drivers/STM32F1xx_HAL_Driver/Src/stm32f1xx_hal_pwr.c **** }
 461:Drivers/STM32F1xx_HAL_Driver/Src/stm32f1xx_hal_pwr.c **** 
 462:Drivers/STM32F1xx_HAL_Driver/Src/stm32f1xx_hal_pwr.c **** /**
 463:Drivers/STM32F1xx_HAL_Driver/Src/stm32f1xx_hal_pwr.c ****   * @brief Enters Stop mode. 
 464:Drivers/STM32F1xx_HAL_Driver/Src/stm32f1xx_hal_pwr.c ****   * @note  In Stop mode, all I/O pins keep the same state as in Run mode.
 465:Drivers/STM32F1xx_HAL_Driver/Src/stm32f1xx_hal_pwr.c ****   * @note  When exiting Stop mode by using an interrupt or a wakeup event,
 466:Drivers/STM32F1xx_HAL_Driver/Src/stm32f1xx_hal_pwr.c ****   *        HSI RC oscillator is selected as system clock.
 467:Drivers/STM32F1xx_HAL_Driver/Src/stm32f1xx_hal_pwr.c ****   * @note  When the voltage regulator operates in low power mode, an additional
 468:Drivers/STM32F1xx_HAL_Driver/Src/stm32f1xx_hal_pwr.c ****   *         startup delay is incurred when waking up from Stop mode. 
 469:Drivers/STM32F1xx_HAL_Driver/Src/stm32f1xx_hal_pwr.c ****   *         By keeping the internal regulator ON during Stop mode, the consumption
 470:Drivers/STM32F1xx_HAL_Driver/Src/stm32f1xx_hal_pwr.c ****   *         is higher although the startup time is reduced.    
 471:Drivers/STM32F1xx_HAL_Driver/Src/stm32f1xx_hal_pwr.c ****   * @param Regulator: Specifies the regulator state in Stop mode.
 472:Drivers/STM32F1xx_HAL_Driver/Src/stm32f1xx_hal_pwr.c ****   *          This parameter can be one of the following values:
 473:Drivers/STM32F1xx_HAL_Driver/Src/stm32f1xx_hal_pwr.c ****   *            @arg PWR_MAINREGULATOR_ON: Stop mode with regulator ON
 474:Drivers/STM32F1xx_HAL_Driver/Src/stm32f1xx_hal_pwr.c ****   *            @arg PWR_LOWPOWERREGULATOR_ON: Stop mode with low power regulator ON
 475:Drivers/STM32F1xx_HAL_Driver/Src/stm32f1xx_hal_pwr.c ****   * @param STOPEntry: Specifies if Stop mode in entered with WFI or WFE instruction.
 476:Drivers/STM32F1xx_HAL_Driver/Src/stm32f1xx_hal_pwr.c ****   *          This parameter can be one of the following values:
 477:Drivers/STM32F1xx_HAL_Driver/Src/stm32f1xx_hal_pwr.c ****   *            @arg PWR_STOPENTRY_WFI: Enter Stop mode with WFI instruction
 478:Drivers/STM32F1xx_HAL_Driver/Src/stm32f1xx_hal_pwr.c ****   *            @arg PWR_STOPENTRY_WFE: Enter Stop mode with WFE instruction   
 479:Drivers/STM32F1xx_HAL_Driver/Src/stm32f1xx_hal_pwr.c ****   * @retval None
 480:Drivers/STM32F1xx_HAL_Driver/Src/stm32f1xx_hal_pwr.c ****   */
 481:Drivers/STM32F1xx_HAL_Driver/Src/stm32f1xx_hal_pwr.c **** void HAL_PWR_EnterSTOPMode(uint32_t Regulator, uint8_t STOPEntry)
 482:Drivers/STM32F1xx_HAL_Driver/Src/stm32f1xx_hal_pwr.c **** {
 430              		.loc 1 482 0
ARM GAS  C:\Users\Areg\AppData\Local\Temp\ccbt8Yka.s 			page 26


 431              		.cfi_startproc
 432              		@ args = 0, pretend = 0, frame = 0
 433              		@ frame_needed = 0, uses_anonymous_args = 0
 434              	.LVL6:
 435 0000 08B5     		push	{r3, lr}
 436              	.LCFI0:
 437              		.cfi_def_cfa_offset 8
 438              		.cfi_offset 3, -8
 439              		.cfi_offset 14, -4
 483:Drivers/STM32F1xx_HAL_Driver/Src/stm32f1xx_hal_pwr.c ****   /* Check the parameters */
 484:Drivers/STM32F1xx_HAL_Driver/Src/stm32f1xx_hal_pwr.c ****   assert_param(IS_PWR_REGULATOR(Regulator));
 485:Drivers/STM32F1xx_HAL_Driver/Src/stm32f1xx_hal_pwr.c ****   assert_param(IS_PWR_STOP_ENTRY(STOPEntry));
 486:Drivers/STM32F1xx_HAL_Driver/Src/stm32f1xx_hal_pwr.c **** 
 487:Drivers/STM32F1xx_HAL_Driver/Src/stm32f1xx_hal_pwr.c ****   /* Clear PDDS bit in PWR register to specify entering in STOP mode when CPU enter in Deepsleep */
 488:Drivers/STM32F1xx_HAL_Driver/Src/stm32f1xx_hal_pwr.c ****   CLEAR_BIT(PWR->CR,  PWR_CR_PDDS);
 440              		.loc 1 488 0
 441 0002 0F4A     		ldr	r2, .L39
 442 0004 1368     		ldr	r3, [r2]
 443 0006 23F00203 		bic	r3, r3, #2
 444 000a 1360     		str	r3, [r2]
 489:Drivers/STM32F1xx_HAL_Driver/Src/stm32f1xx_hal_pwr.c **** 
 490:Drivers/STM32F1xx_HAL_Driver/Src/stm32f1xx_hal_pwr.c ****   /* Select the voltage regulator mode by setting LPDS bit in PWR register according to Regulator p
 491:Drivers/STM32F1xx_HAL_Driver/Src/stm32f1xx_hal_pwr.c ****   MODIFY_REG(PWR->CR, PWR_CR_LPDS, Regulator);
 445              		.loc 1 491 0
 446 000c 1368     		ldr	r3, [r2]
 447 000e 23F00103 		bic	r3, r3, #1
 448 0012 1843     		orrs	r0, r0, r3
 449              	.LVL7:
 450 0014 1060     		str	r0, [r2]
 492:Drivers/STM32F1xx_HAL_Driver/Src/stm32f1xx_hal_pwr.c **** 
 493:Drivers/STM32F1xx_HAL_Driver/Src/stm32f1xx_hal_pwr.c ****   /* Set SLEEPDEEP bit of Cortex System Control Register */
 494:Drivers/STM32F1xx_HAL_Driver/Src/stm32f1xx_hal_pwr.c ****   SET_BIT(SCB->SCR, ((uint32_t)SCB_SCR_SLEEPDEEP_Msk));
 451              		.loc 1 494 0
 452 0016 0B4A     		ldr	r2, .L39+4
 453 0018 1369     		ldr	r3, [r2, #16]
 454 001a 43F00403 		orr	r3, r3, #4
 455 001e 1361     		str	r3, [r2, #16]
 495:Drivers/STM32F1xx_HAL_Driver/Src/stm32f1xx_hal_pwr.c **** 
 496:Drivers/STM32F1xx_HAL_Driver/Src/stm32f1xx_hal_pwr.c ****   /* Select Stop mode entry --------------------------------------------------*/
 497:Drivers/STM32F1xx_HAL_Driver/Src/stm32f1xx_hal_pwr.c ****   if(STOPEntry == PWR_STOPENTRY_WFI)
 456              		.loc 1 497 0
 457 0020 0129     		cmp	r1, #1
 458 0022 01D1     		bne	.L36
 459              	.LBB32:
 460              	.LBB33:
 385:Drivers/CMSIS/Include/cmsis_gcc.h **** }
 461              		.loc 2 385 0
 462              		.syntax unified
 463              	@ 385 "Drivers/CMSIS/Include/cmsis_gcc.h" 1
 464 0024 30BF     		wfi
 465              	@ 0 "" 2
 466              		.thumb
 467              		.syntax unified
 468 0026 04E0     		b	.L37
 469              	.L36:
 470              	.LBE33:
 471              	.LBE32:
ARM GAS  C:\Users\Areg\AppData\Local\Temp\ccbt8Yka.s 			page 27


 472              	.LBB34:
 473              	.LBB35:
 406:Drivers/CMSIS/Include/cmsis_gcc.h **** }
 474              		.loc 2 406 0
 475              		.syntax unified
 476              	@ 406 "Drivers/CMSIS/Include/cmsis_gcc.h" 1
 477 0028 40BF     		sev
 478              	@ 0 "" 2
 479              		.thumb
 480              		.syntax unified
 481              	.LBE35:
 482              	.LBE34:
 498:Drivers/STM32F1xx_HAL_Driver/Src/stm32f1xx_hal_pwr.c ****   {
 499:Drivers/STM32F1xx_HAL_Driver/Src/stm32f1xx_hal_pwr.c ****     /* Request Wait For Interrupt */
 500:Drivers/STM32F1xx_HAL_Driver/Src/stm32f1xx_hal_pwr.c ****     __WFI();
 501:Drivers/STM32F1xx_HAL_Driver/Src/stm32f1xx_hal_pwr.c ****   }
 502:Drivers/STM32F1xx_HAL_Driver/Src/stm32f1xx_hal_pwr.c ****   else
 503:Drivers/STM32F1xx_HAL_Driver/Src/stm32f1xx_hal_pwr.c ****   {
 504:Drivers/STM32F1xx_HAL_Driver/Src/stm32f1xx_hal_pwr.c ****     /* Request Wait For Event */
 505:Drivers/STM32F1xx_HAL_Driver/Src/stm32f1xx_hal_pwr.c ****     __SEV();
 506:Drivers/STM32F1xx_HAL_Driver/Src/stm32f1xx_hal_pwr.c ****     PWR_OverloadWfe(); /* WFE redefine locally */
 483              		.loc 1 506 0
 484 002a FFF7FEFF 		bl	PWR_OverloadWfe
 485              	.LVL8:
 507:Drivers/STM32F1xx_HAL_Driver/Src/stm32f1xx_hal_pwr.c ****     PWR_OverloadWfe(); /* WFE redefine locally */
 486              		.loc 1 507 0
 487 002e FFF7FEFF 		bl	PWR_OverloadWfe
 488              	.LVL9:
 489              	.L37:
 508:Drivers/STM32F1xx_HAL_Driver/Src/stm32f1xx_hal_pwr.c ****   }
 509:Drivers/STM32F1xx_HAL_Driver/Src/stm32f1xx_hal_pwr.c ****   /* Reset SLEEPDEEP bit of Cortex System Control Register */
 510:Drivers/STM32F1xx_HAL_Driver/Src/stm32f1xx_hal_pwr.c ****   CLEAR_BIT(SCB->SCR, ((uint32_t)SCB_SCR_SLEEPDEEP_Msk));
 490              		.loc 1 510 0
 491 0032 044A     		ldr	r2, .L39+4
 492 0034 1369     		ldr	r3, [r2, #16]
 493 0036 23F00403 		bic	r3, r3, #4
 494 003a 1361     		str	r3, [r2, #16]
 495 003c 08BD     		pop	{r3, pc}
 496              	.L40:
 497 003e 00BF     		.align	2
 498              	.L39:
 499 0040 00700040 		.word	1073770496
 500 0044 00ED00E0 		.word	-536810240
 501              		.cfi_endproc
 502              	.LFE74:
 504              		.section	.text.HAL_PWR_EnterSTANDBYMode,"ax",%progbits
 505              		.align	2
 506              		.global	HAL_PWR_EnterSTANDBYMode
 507              		.thumb
 508              		.thumb_func
 510              	HAL_PWR_EnterSTANDBYMode:
 511              	.LFB75:
 511:Drivers/STM32F1xx_HAL_Driver/Src/stm32f1xx_hal_pwr.c **** }
 512:Drivers/STM32F1xx_HAL_Driver/Src/stm32f1xx_hal_pwr.c **** 
 513:Drivers/STM32F1xx_HAL_Driver/Src/stm32f1xx_hal_pwr.c **** /**
 514:Drivers/STM32F1xx_HAL_Driver/Src/stm32f1xx_hal_pwr.c ****   * @brief Enters Standby mode.
 515:Drivers/STM32F1xx_HAL_Driver/Src/stm32f1xx_hal_pwr.c ****   * @note  In Standby mode, all I/O pins are high impedance except for:
ARM GAS  C:\Users\Areg\AppData\Local\Temp\ccbt8Yka.s 			page 28


 516:Drivers/STM32F1xx_HAL_Driver/Src/stm32f1xx_hal_pwr.c ****   *          - Reset pad (still available) 
 517:Drivers/STM32F1xx_HAL_Driver/Src/stm32f1xx_hal_pwr.c ****   *          - TAMPER pin if configured for tamper or calibration out.
 518:Drivers/STM32F1xx_HAL_Driver/Src/stm32f1xx_hal_pwr.c ****   *          - WKUP pin (PA0) if enabled.
 519:Drivers/STM32F1xx_HAL_Driver/Src/stm32f1xx_hal_pwr.c ****   * @retval None
 520:Drivers/STM32F1xx_HAL_Driver/Src/stm32f1xx_hal_pwr.c ****   */
 521:Drivers/STM32F1xx_HAL_Driver/Src/stm32f1xx_hal_pwr.c **** void HAL_PWR_EnterSTANDBYMode(void)
 522:Drivers/STM32F1xx_HAL_Driver/Src/stm32f1xx_hal_pwr.c **** {
 512              		.loc 1 522 0
 513              		.cfi_startproc
 514              		@ args = 0, pretend = 0, frame = 0
 515              		@ frame_needed = 0, uses_anonymous_args = 0
 516              		@ link register save eliminated.
 523:Drivers/STM32F1xx_HAL_Driver/Src/stm32f1xx_hal_pwr.c ****   /* Select Standby mode */
 524:Drivers/STM32F1xx_HAL_Driver/Src/stm32f1xx_hal_pwr.c ****   SET_BIT(PWR->CR, PWR_CR_PDDS);
 517              		.loc 1 524 0
 518 0000 054A     		ldr	r2, .L42
 519 0002 1368     		ldr	r3, [r2]
 520 0004 43F00203 		orr	r3, r3, #2
 521 0008 1360     		str	r3, [r2]
 525:Drivers/STM32F1xx_HAL_Driver/Src/stm32f1xx_hal_pwr.c **** 
 526:Drivers/STM32F1xx_HAL_Driver/Src/stm32f1xx_hal_pwr.c ****   /* Set SLEEPDEEP bit of Cortex System Control Register */
 527:Drivers/STM32F1xx_HAL_Driver/Src/stm32f1xx_hal_pwr.c ****   SET_BIT(SCB->SCR, ((uint32_t)SCB_SCR_SLEEPDEEP_Msk));
 522              		.loc 1 527 0
 523 000a 044A     		ldr	r2, .L42+4
 524 000c 1369     		ldr	r3, [r2, #16]
 525 000e 43F00403 		orr	r3, r3, #4
 526 0012 1361     		str	r3, [r2, #16]
 527              	.LBB36:
 528              	.LBB37:
 385:Drivers/CMSIS/Include/cmsis_gcc.h **** }
 529              		.loc 2 385 0
 530              		.syntax unified
 531              	@ 385 "Drivers/CMSIS/Include/cmsis_gcc.h" 1
 532 0014 30BF     		wfi
 533              	@ 0 "" 2
 534              		.thumb
 535              		.syntax unified
 536 0016 7047     		bx	lr
 537              	.L43:
 538              		.align	2
 539              	.L42:
 540 0018 00700040 		.word	1073770496
 541 001c 00ED00E0 		.word	-536810240
 542              	.LBE37:
 543              	.LBE36:
 544              		.cfi_endproc
 545              	.LFE75:
 547              		.section	.text.HAL_PWR_EnableSleepOnExit,"ax",%progbits
 548              		.align	2
 549              		.global	HAL_PWR_EnableSleepOnExit
 550              		.thumb
 551              		.thumb_func
 553              	HAL_PWR_EnableSleepOnExit:
 554              	.LFB76:
 528:Drivers/STM32F1xx_HAL_Driver/Src/stm32f1xx_hal_pwr.c **** 
 529:Drivers/STM32F1xx_HAL_Driver/Src/stm32f1xx_hal_pwr.c ****   /* This option is used to ensure that store operations are completed */
 530:Drivers/STM32F1xx_HAL_Driver/Src/stm32f1xx_hal_pwr.c **** #if defined ( __CC_ARM)
ARM GAS  C:\Users\Areg\AppData\Local\Temp\ccbt8Yka.s 			page 29


 531:Drivers/STM32F1xx_HAL_Driver/Src/stm32f1xx_hal_pwr.c ****   __force_stores();
 532:Drivers/STM32F1xx_HAL_Driver/Src/stm32f1xx_hal_pwr.c **** #endif
 533:Drivers/STM32F1xx_HAL_Driver/Src/stm32f1xx_hal_pwr.c ****   /* Request Wait For Interrupt */
 534:Drivers/STM32F1xx_HAL_Driver/Src/stm32f1xx_hal_pwr.c ****   __WFI();
 535:Drivers/STM32F1xx_HAL_Driver/Src/stm32f1xx_hal_pwr.c **** }
 536:Drivers/STM32F1xx_HAL_Driver/Src/stm32f1xx_hal_pwr.c **** 
 537:Drivers/STM32F1xx_HAL_Driver/Src/stm32f1xx_hal_pwr.c **** 
 538:Drivers/STM32F1xx_HAL_Driver/Src/stm32f1xx_hal_pwr.c **** /**
 539:Drivers/STM32F1xx_HAL_Driver/Src/stm32f1xx_hal_pwr.c ****   * @brief Indicates Sleep-On-Exit when returning from Handler mode to Thread mode. 
 540:Drivers/STM32F1xx_HAL_Driver/Src/stm32f1xx_hal_pwr.c ****   * @note Set SLEEPONEXIT bit of SCR register. When this bit is set, the processor 
 541:Drivers/STM32F1xx_HAL_Driver/Src/stm32f1xx_hal_pwr.c ****   *       re-enters SLEEP mode when an interruption handling is over.
 542:Drivers/STM32F1xx_HAL_Driver/Src/stm32f1xx_hal_pwr.c ****   *       Setting this bit is useful when the processor is expected to run only on
 543:Drivers/STM32F1xx_HAL_Driver/Src/stm32f1xx_hal_pwr.c ****   *       interruptions handling.         
 544:Drivers/STM32F1xx_HAL_Driver/Src/stm32f1xx_hal_pwr.c ****   * @retval None
 545:Drivers/STM32F1xx_HAL_Driver/Src/stm32f1xx_hal_pwr.c ****   */
 546:Drivers/STM32F1xx_HAL_Driver/Src/stm32f1xx_hal_pwr.c **** void HAL_PWR_EnableSleepOnExit(void)
 547:Drivers/STM32F1xx_HAL_Driver/Src/stm32f1xx_hal_pwr.c **** {
 555              		.loc 1 547 0
 556              		.cfi_startproc
 557              		@ args = 0, pretend = 0, frame = 0
 558              		@ frame_needed = 0, uses_anonymous_args = 0
 559              		@ link register save eliminated.
 548:Drivers/STM32F1xx_HAL_Driver/Src/stm32f1xx_hal_pwr.c ****   /* Set SLEEPONEXIT bit of Cortex System Control Register */
 549:Drivers/STM32F1xx_HAL_Driver/Src/stm32f1xx_hal_pwr.c ****   SET_BIT(SCB->SCR, ((uint32_t)SCB_SCR_SLEEPONEXIT_Msk));
 560              		.loc 1 549 0
 561 0000 024A     		ldr	r2, .L45
 562 0002 1369     		ldr	r3, [r2, #16]
 563 0004 43F00203 		orr	r3, r3, #2
 564 0008 1361     		str	r3, [r2, #16]
 565 000a 7047     		bx	lr
 566              	.L46:
 567              		.align	2
 568              	.L45:
 569 000c 00ED00E0 		.word	-536810240
 570              		.cfi_endproc
 571              	.LFE76:
 573              		.section	.text.HAL_PWR_DisableSleepOnExit,"ax",%progbits
 574              		.align	2
 575              		.global	HAL_PWR_DisableSleepOnExit
 576              		.thumb
 577              		.thumb_func
 579              	HAL_PWR_DisableSleepOnExit:
 580              	.LFB77:
 550:Drivers/STM32F1xx_HAL_Driver/Src/stm32f1xx_hal_pwr.c **** }
 551:Drivers/STM32F1xx_HAL_Driver/Src/stm32f1xx_hal_pwr.c **** 
 552:Drivers/STM32F1xx_HAL_Driver/Src/stm32f1xx_hal_pwr.c **** 
 553:Drivers/STM32F1xx_HAL_Driver/Src/stm32f1xx_hal_pwr.c **** /**
 554:Drivers/STM32F1xx_HAL_Driver/Src/stm32f1xx_hal_pwr.c ****   * @brief Disables Sleep-On-Exit feature when returning from Handler mode to Thread mode. 
 555:Drivers/STM32F1xx_HAL_Driver/Src/stm32f1xx_hal_pwr.c ****   * @note Clears SLEEPONEXIT bit of SCR register. When this bit is set, the processor 
 556:Drivers/STM32F1xx_HAL_Driver/Src/stm32f1xx_hal_pwr.c ****   *       re-enters SLEEP mode when an interruption handling is over.          
 557:Drivers/STM32F1xx_HAL_Driver/Src/stm32f1xx_hal_pwr.c ****   * @retval None
 558:Drivers/STM32F1xx_HAL_Driver/Src/stm32f1xx_hal_pwr.c ****   */
 559:Drivers/STM32F1xx_HAL_Driver/Src/stm32f1xx_hal_pwr.c **** void HAL_PWR_DisableSleepOnExit(void)
 560:Drivers/STM32F1xx_HAL_Driver/Src/stm32f1xx_hal_pwr.c **** {
 581              		.loc 1 560 0
 582              		.cfi_startproc
 583              		@ args = 0, pretend = 0, frame = 0
ARM GAS  C:\Users\Areg\AppData\Local\Temp\ccbt8Yka.s 			page 30


 584              		@ frame_needed = 0, uses_anonymous_args = 0
 585              		@ link register save eliminated.
 561:Drivers/STM32F1xx_HAL_Driver/Src/stm32f1xx_hal_pwr.c ****   /* Clear SLEEPONEXIT bit of Cortex System Control Register */
 562:Drivers/STM32F1xx_HAL_Driver/Src/stm32f1xx_hal_pwr.c ****   CLEAR_BIT(SCB->SCR, ((uint32_t)SCB_SCR_SLEEPONEXIT_Msk));
 586              		.loc 1 562 0
 587 0000 024A     		ldr	r2, .L48
 588 0002 1369     		ldr	r3, [r2, #16]
 589 0004 23F00203 		bic	r3, r3, #2
 590 0008 1361     		str	r3, [r2, #16]
 591 000a 7047     		bx	lr
 592              	.L49:
 593              		.align	2
 594              	.L48:
 595 000c 00ED00E0 		.word	-536810240
 596              		.cfi_endproc
 597              	.LFE77:
 599              		.section	.text.HAL_PWR_EnableSEVOnPend,"ax",%progbits
 600              		.align	2
 601              		.global	HAL_PWR_EnableSEVOnPend
 602              		.thumb
 603              		.thumb_func
 605              	HAL_PWR_EnableSEVOnPend:
 606              	.LFB78:
 563:Drivers/STM32F1xx_HAL_Driver/Src/stm32f1xx_hal_pwr.c **** }
 564:Drivers/STM32F1xx_HAL_Driver/Src/stm32f1xx_hal_pwr.c **** 
 565:Drivers/STM32F1xx_HAL_Driver/Src/stm32f1xx_hal_pwr.c **** 
 566:Drivers/STM32F1xx_HAL_Driver/Src/stm32f1xx_hal_pwr.c **** /**
 567:Drivers/STM32F1xx_HAL_Driver/Src/stm32f1xx_hal_pwr.c ****   * @brief Enables CORTEX M3 SEVONPEND bit. 
 568:Drivers/STM32F1xx_HAL_Driver/Src/stm32f1xx_hal_pwr.c ****   * @note Sets SEVONPEND bit of SCR register. When this bit is set, this causes 
 569:Drivers/STM32F1xx_HAL_Driver/Src/stm32f1xx_hal_pwr.c ****   *       WFE to wake up when an interrupt moves from inactive to pended.
 570:Drivers/STM32F1xx_HAL_Driver/Src/stm32f1xx_hal_pwr.c ****   * @retval None
 571:Drivers/STM32F1xx_HAL_Driver/Src/stm32f1xx_hal_pwr.c ****   */
 572:Drivers/STM32F1xx_HAL_Driver/Src/stm32f1xx_hal_pwr.c **** void HAL_PWR_EnableSEVOnPend(void)
 573:Drivers/STM32F1xx_HAL_Driver/Src/stm32f1xx_hal_pwr.c **** {
 607              		.loc 1 573 0
 608              		.cfi_startproc
 609              		@ args = 0, pretend = 0, frame = 0
 610              		@ frame_needed = 0, uses_anonymous_args = 0
 611              		@ link register save eliminated.
 574:Drivers/STM32F1xx_HAL_Driver/Src/stm32f1xx_hal_pwr.c ****   /* Set SEVONPEND bit of Cortex System Control Register */
 575:Drivers/STM32F1xx_HAL_Driver/Src/stm32f1xx_hal_pwr.c ****   SET_BIT(SCB->SCR, ((uint32_t)SCB_SCR_SEVONPEND_Msk));
 612              		.loc 1 575 0
 613 0000 024A     		ldr	r2, .L51
 614 0002 1369     		ldr	r3, [r2, #16]
 615 0004 43F01003 		orr	r3, r3, #16
 616 0008 1361     		str	r3, [r2, #16]
 617 000a 7047     		bx	lr
 618              	.L52:
 619              		.align	2
 620              	.L51:
 621 000c 00ED00E0 		.word	-536810240
 622              		.cfi_endproc
 623              	.LFE78:
 625              		.section	.text.HAL_PWR_DisableSEVOnPend,"ax",%progbits
 626              		.align	2
 627              		.global	HAL_PWR_DisableSEVOnPend
 628              		.thumb
ARM GAS  C:\Users\Areg\AppData\Local\Temp\ccbt8Yka.s 			page 31


 629              		.thumb_func
 631              	HAL_PWR_DisableSEVOnPend:
 632              	.LFB79:
 576:Drivers/STM32F1xx_HAL_Driver/Src/stm32f1xx_hal_pwr.c **** }
 577:Drivers/STM32F1xx_HAL_Driver/Src/stm32f1xx_hal_pwr.c **** 
 578:Drivers/STM32F1xx_HAL_Driver/Src/stm32f1xx_hal_pwr.c **** 
 579:Drivers/STM32F1xx_HAL_Driver/Src/stm32f1xx_hal_pwr.c **** /**
 580:Drivers/STM32F1xx_HAL_Driver/Src/stm32f1xx_hal_pwr.c ****   * @brief Disables CORTEX M3 SEVONPEND bit. 
 581:Drivers/STM32F1xx_HAL_Driver/Src/stm32f1xx_hal_pwr.c ****   * @note Clears SEVONPEND bit of SCR register. When this bit is set, this causes 
 582:Drivers/STM32F1xx_HAL_Driver/Src/stm32f1xx_hal_pwr.c ****   *       WFE to wake up when an interrupt moves from inactive to pended.         
 583:Drivers/STM32F1xx_HAL_Driver/Src/stm32f1xx_hal_pwr.c ****   * @retval None
 584:Drivers/STM32F1xx_HAL_Driver/Src/stm32f1xx_hal_pwr.c ****   */
 585:Drivers/STM32F1xx_HAL_Driver/Src/stm32f1xx_hal_pwr.c **** void HAL_PWR_DisableSEVOnPend(void)
 586:Drivers/STM32F1xx_HAL_Driver/Src/stm32f1xx_hal_pwr.c **** {
 633              		.loc 1 586 0
 634              		.cfi_startproc
 635              		@ args = 0, pretend = 0, frame = 0
 636              		@ frame_needed = 0, uses_anonymous_args = 0
 637              		@ link register save eliminated.
 587:Drivers/STM32F1xx_HAL_Driver/Src/stm32f1xx_hal_pwr.c ****   /* Clear SEVONPEND bit of Cortex System Control Register */
 588:Drivers/STM32F1xx_HAL_Driver/Src/stm32f1xx_hal_pwr.c ****   CLEAR_BIT(SCB->SCR, ((uint32_t)SCB_SCR_SEVONPEND_Msk));
 638              		.loc 1 588 0
 639 0000 024A     		ldr	r2, .L54
 640 0002 1369     		ldr	r3, [r2, #16]
 641 0004 23F01003 		bic	r3, r3, #16
 642 0008 1361     		str	r3, [r2, #16]
 643 000a 7047     		bx	lr
 644              	.L55:
 645              		.align	2
 646              	.L54:
 647 000c 00ED00E0 		.word	-536810240
 648              		.cfi_endproc
 649              	.LFE79:
 651              		.section	.text.HAL_PWR_PVDCallback,"ax",%progbits
 652              		.align	2
 653              		.weak	HAL_PWR_PVDCallback
 654              		.thumb
 655              		.thumb_func
 657              	HAL_PWR_PVDCallback:
 658              	.LFB81:
 589:Drivers/STM32F1xx_HAL_Driver/Src/stm32f1xx_hal_pwr.c **** }
 590:Drivers/STM32F1xx_HAL_Driver/Src/stm32f1xx_hal_pwr.c **** 
 591:Drivers/STM32F1xx_HAL_Driver/Src/stm32f1xx_hal_pwr.c **** 
 592:Drivers/STM32F1xx_HAL_Driver/Src/stm32f1xx_hal_pwr.c **** 
 593:Drivers/STM32F1xx_HAL_Driver/Src/stm32f1xx_hal_pwr.c **** /**
 594:Drivers/STM32F1xx_HAL_Driver/Src/stm32f1xx_hal_pwr.c ****   * @brief  This function handles the PWR PVD interrupt request.
 595:Drivers/STM32F1xx_HAL_Driver/Src/stm32f1xx_hal_pwr.c ****   * @note   This API should be called under the PVD_IRQHandler().
 596:Drivers/STM32F1xx_HAL_Driver/Src/stm32f1xx_hal_pwr.c ****   * @retval None
 597:Drivers/STM32F1xx_HAL_Driver/Src/stm32f1xx_hal_pwr.c ****   */
 598:Drivers/STM32F1xx_HAL_Driver/Src/stm32f1xx_hal_pwr.c **** void HAL_PWR_PVD_IRQHandler(void)
 599:Drivers/STM32F1xx_HAL_Driver/Src/stm32f1xx_hal_pwr.c **** {
 600:Drivers/STM32F1xx_HAL_Driver/Src/stm32f1xx_hal_pwr.c ****   /* Check PWR exti flag */
 601:Drivers/STM32F1xx_HAL_Driver/Src/stm32f1xx_hal_pwr.c ****   if(__HAL_PWR_PVD_EXTI_GET_FLAG() != RESET)
 602:Drivers/STM32F1xx_HAL_Driver/Src/stm32f1xx_hal_pwr.c ****   {
 603:Drivers/STM32F1xx_HAL_Driver/Src/stm32f1xx_hal_pwr.c ****     /* PWR PVD interrupt user callback */
 604:Drivers/STM32F1xx_HAL_Driver/Src/stm32f1xx_hal_pwr.c ****     HAL_PWR_PVDCallback();
 605:Drivers/STM32F1xx_HAL_Driver/Src/stm32f1xx_hal_pwr.c **** 
ARM GAS  C:\Users\Areg\AppData\Local\Temp\ccbt8Yka.s 			page 32


 606:Drivers/STM32F1xx_HAL_Driver/Src/stm32f1xx_hal_pwr.c ****     /* Clear PWR Exti pending bit */
 607:Drivers/STM32F1xx_HAL_Driver/Src/stm32f1xx_hal_pwr.c ****     __HAL_PWR_PVD_EXTI_CLEAR_FLAG();
 608:Drivers/STM32F1xx_HAL_Driver/Src/stm32f1xx_hal_pwr.c ****   }
 609:Drivers/STM32F1xx_HAL_Driver/Src/stm32f1xx_hal_pwr.c **** }
 610:Drivers/STM32F1xx_HAL_Driver/Src/stm32f1xx_hal_pwr.c **** 
 611:Drivers/STM32F1xx_HAL_Driver/Src/stm32f1xx_hal_pwr.c **** /**
 612:Drivers/STM32F1xx_HAL_Driver/Src/stm32f1xx_hal_pwr.c ****   * @brief  PWR PVD interrupt callback
 613:Drivers/STM32F1xx_HAL_Driver/Src/stm32f1xx_hal_pwr.c ****   * @retval None
 614:Drivers/STM32F1xx_HAL_Driver/Src/stm32f1xx_hal_pwr.c ****   */
 615:Drivers/STM32F1xx_HAL_Driver/Src/stm32f1xx_hal_pwr.c **** __weak void HAL_PWR_PVDCallback(void)
 616:Drivers/STM32F1xx_HAL_Driver/Src/stm32f1xx_hal_pwr.c **** {
 659              		.loc 1 616 0
 660              		.cfi_startproc
 661              		@ args = 0, pretend = 0, frame = 0
 662              		@ frame_needed = 0, uses_anonymous_args = 0
 663              		@ link register save eliminated.
 664 0000 7047     		bx	lr
 665              		.cfi_endproc
 666              	.LFE81:
 668 0002 00BF     		.section	.text.HAL_PWR_PVD_IRQHandler,"ax",%progbits
 669              		.align	2
 670              		.global	HAL_PWR_PVD_IRQHandler
 671              		.thumb
 672              		.thumb_func
 674              	HAL_PWR_PVD_IRQHandler:
 675              	.LFB80:
 599:Drivers/STM32F1xx_HAL_Driver/Src/stm32f1xx_hal_pwr.c ****   /* Check PWR exti flag */
 676              		.loc 1 599 0
 677              		.cfi_startproc
 678              		@ args = 0, pretend = 0, frame = 0
 679              		@ frame_needed = 0, uses_anonymous_args = 0
 599:Drivers/STM32F1xx_HAL_Driver/Src/stm32f1xx_hal_pwr.c ****   /* Check PWR exti flag */
 680              		.loc 1 599 0
 681 0000 08B5     		push	{r3, lr}
 682              	.LCFI1:
 683              		.cfi_def_cfa_offset 8
 684              		.cfi_offset 3, -8
 685              		.cfi_offset 14, -4
 601:Drivers/STM32F1xx_HAL_Driver/Src/stm32f1xx_hal_pwr.c ****   {
 686              		.loc 1 601 0
 687 0002 064B     		ldr	r3, .L60
 688 0004 5B69     		ldr	r3, [r3, #20]
 689 0006 13F4803F 		tst	r3, #65536
 690 000a 05D0     		beq	.L57
 604:Drivers/STM32F1xx_HAL_Driver/Src/stm32f1xx_hal_pwr.c **** 
 691              		.loc 1 604 0
 692 000c FFF7FEFF 		bl	HAL_PWR_PVDCallback
 693              	.LVL10:
 607:Drivers/STM32F1xx_HAL_Driver/Src/stm32f1xx_hal_pwr.c ****   }
 694              		.loc 1 607 0
 695 0010 4FF48032 		mov	r2, #65536
 696 0014 014B     		ldr	r3, .L60
 697 0016 5A61     		str	r2, [r3, #20]
 698              	.L57:
 699 0018 08BD     		pop	{r3, pc}
 700              	.L61:
 701 001a 00BF     		.align	2
ARM GAS  C:\Users\Areg\AppData\Local\Temp\ccbt8Yka.s 			page 33


 702              	.L60:
 703 001c 00040140 		.word	1073808384
 704              		.cfi_endproc
 705              	.LFE80:
 707              		.text
 708              	.Letext0:
 709              		.file 3 "d:\\stm32\\gcc-arm\\arm-none-eabi\\include\\machine\\_default_types.h"
 710              		.file 4 "d:\\stm32\\gcc-arm\\arm-none-eabi\\include\\sys\\_stdint.h"
 711              		.file 5 "Drivers/CMSIS/Include/core_cm3.h"
 712              		.file 6 "Drivers/CMSIS/Device/ST/STM32F1xx/Include/stm32f103xe.h"
 713              		.file 7 "Drivers/CMSIS/Device/ST/STM32F1xx/Include/stm32f1xx.h"
 714              		.file 8 "Drivers/STM32F1xx_HAL_Driver/Inc/stm32f1xx_hal_pwr.h"
ARM GAS  C:\Users\Areg\AppData\Local\Temp\ccbt8Yka.s 			page 34

